(lp0
(cnumpy.core.multiarray
scalar
p1
(cnumpy
dtype
p2
(S'f8'
p3
I0
I1
tp4
Rp5
(I3
S'<'
p6
NNNI-1
I-1
I0
tp7
bS'P\xe8\x15\xf8\x17\x186@'
p8
tp9
Rp10
(I351
I300
tp11
S'SWN'
p12
tp13
a(g1
(g5
S'\x15\xd5t,N\xc19@'
p14
tp15
Rp16
(I262
I500
tp17
S'CMC'
p18
tp19
a(g1
(g5
S"`9\x9f'\x9e]<@"
p20
tp21
Rp22
(I52
I300
tp23
S'TECH'
p24
tp25
a(g1
(g5
S'\x16\x95\xcdLT\xa4<@'
p26
tp27
Rp28
(I117
I500
tp29
S'MLHR'
p30
tp31
a(g1
(g5
S'|\x8a\x18\x95\xe0\x88>@'
p32
tp33
Rp34
(I5
I300
tp35
S'WRB'
p36
tp37
a(g1
(g5
S'6X\xf7\x90\xe8\xbe>@'
p38
tp39
Rp40
(I77
I100
tp41
S'CREE'
p42
tp43
a(g1
(g5
S'G\n\xcaKuf?@'
p44
tp45
Rp46
(I51
I300
tp47
S'URBN'
p48
tp49
a(g1
(g5
S'\xad\x9dC\x835\x9c?@'
p50
tp51
Rp52
(I59
I500
tp53
S'MANH'
p54
tp55
a(g1
(g5
S'V \xb5\xda\x14\\@@'
p56
tp57
Rp58
(I209
I300
tp59
S'NBR'
p60
tp61
a(g1
(g5
S'\xec\x8c\xd0\xbe\xe2a@@'
p62
tp63
Rp64
(I131
I500
tp65
S'FAF'
p66
tp67
a(g1
(g5
S']\x86\xd3\xc0\xb3w@@'
p68
tp69
Rp70
(I107
I500
tp71
S'SEIC'
p72
tp73
a(g1
(g5
S'\xc5\x83\xca\xfa\xf2\x9b@@'
p74
tp75
Rp76
(I470
I500
tp77
S'COHR'
p78
tp79
a(g1
(g5
S'zN\x01h\xab:A@'
p80
tp81
Rp82
(I67
I300
tp83
S'EXP'
p84
tp85
a(g1
(g5
S'\x90\x91\xc5\t7>A@'
p86
tp87
Rp88
(I276
I500
tp89
S'ABMD'
p90
tp91
a(g1
(g5
S'C\xa83X\xa6oA@'
p92
tp93
Rp94
(I177
I500
tp95
S'CPRT'
p96
tp97
a(g1
(g5
S'8\xeb\x0e\xdd\x87\x9bA@'
p98
tp99
Rp100
(I101
I300
tp101
S'OSK'
p102
tp103
a(g1
(g5
S'\xbe4x\r\x95\xccA@'
p104
tp105
Rp106
(I80
I300
tp107
S'WSO'
p108
tp109
a(g1
(g5
S'\xbfuh\xc5\xbb\xebA@'
p110
tp111
Rp112
(I156
I500
tp113
S'TER'
p114
tp115
a(g1
(g5
S'\x89\x99\xc8^[\x00B@'
p116
tp117
Rp118
(I3
I300
tp119
S'NVR'
p120
tp121
a(g1
(g5
S'i\xe3\xc9\x04\xdc\tB@'
p122
tp123
Rp124
(I243
I300
tp125
S'BCO'
p126
tp127
a(g1
(g5
S'\x9aJF\x043\x0fB@'
p128
tp129
Rp130
(I288
I500
tp131
S'OII'
p132
tp133
a(g1
(g5
S'\xc1\x0bt\xf9\x11MB@'
p134
tp135
Rp136
(I300
I500
tp137
S'VMI'
p138
tp139
a(g1
(g5
S'G0\xd9d\xf5MB@'
p140
tp141
Rp142
(I41
I500
tp143
S'DY'
p144
tp145
a(g1
(g5
S'W\x087q\xc6WB@'
p146
tp147
Rp148
(I278
I100
tp149
S'IDCC'
p150
tp151
a(g1
(g5
S'$\x01\x8e6(\xbaB@'
p152
tp153
Rp154
(I46
I300
tp155
S'GNTX'
p156
tp157
a(g1
(g5
S'\xfa\xd5v\xbd\xf9\xffB@'
p158
tp159
Rp160
(I21
I100
tp161
S'PTEN'
p162
tp163
a(g1
(g5
S'o\xf3\xc9L\xdd C@'
p164
tp165
Rp166
(I177
I500
tp167
S'TYL'
p168
tp169
a(g1
(g5
S'0*p\xf4\xea%C@'
p170
tp171
Rp172
(I125
I300
tp173
S'LANC'
p174
tp175
a(g1
(g5
S'M\x84\xcdpY0C@'
p176
tp177
Rp178
(I60
I500
tp179
S'SAFM'
p180
tp181
a(g1
(g5
S'\x0c?-\x84\xf2AC@'
p182
tp183
Rp184
(I194
I300
tp185
S'TOL'
p186
tp187
a(g1
(g5
S'\x03\x14\xa7\xb1\x9d\x94C@'
p188
tp189
Rp190
(I142
I300
tp191
S'SKX'
p192
tp193
a(g1
(g5
S'\x90\xdf\x12\xa3#\x99C@'
p194
tp195
Rp196
(I65
I300
tp197
S'ODFL'
p198
tp199
a(g1
(g5
S'Dy2r\xee\xb2C@'
p200
tp201
Rp202
(I85
I300
tp203
S'GEO'
p204
tp205
a(g1
(g5
S'\xc2\x01\x9d\x04\n\xbdC@'
p206
tp207
Rp208
(I116
I500
tp209
S'MDP'
p210
tp211
a(g1
(g5
S'\xbc\xe2\xfc\xdbi\xf8C@'
p212
tp213
Rp214
(I221
I300
tp215
S'TTWO'
p216
tp217
a(g1
(g5
S'\xdc\xf9\xc0\xb3z\xf8C@'
p218
tp219
Rp220
(I11
I500
tp221
S'CTB'
p222
tp223
a(g1
(g5
S'\xfb\x12|\x96\xbd\xfeC@'
p224
tp225
Rp226
(I177
I300
tp227
S'TDS'
p228
tp229
a(g1
(g5
S'a\xbf\x14pp\x14D@'
p230
tp231
Rp232
(I207
I300
tp233
S'HELE'
p234
tp235
a(g1
(g5
S'\x1c\xb1bG0%D@'
p236
tp237
Rp238
(I59
I100
tp239
S'OFC'
p240
tp241
a(g1
(g5
S'\\\x84*8[*D@'
p242
tp243
Rp244
(I68
I300
tp245
S'CLB'
p246
tp247
a(g1
(g5
S'\xe9Sg[\xfdHD@'
p248
tp249
Rp250
(I170
I300
tp251
S'ESV'
p252
tp253
a(g1
(g5
S'\xe6\x83\x1b\x89\xe5\\D@'
p254
tp255
Rp256
(I251
I300
tp257
S'TEX'
p258
tp259
a(g1
(g5
S'}<|\xe2\xce\x87D@'
p260
tp261
Rp262
(I1
I300
tp263
S'NEU'
p264
tp265
a(g1
(g5
S'\x17\xea\xb7/\x94\xe6D@'
p266
tp267
Rp268
(I45
I500
tp269
S'MMS'
p270
tp271
a(g1
(g5
S'\x9e/\xb6a\\\xf2D@'
p272
tp273
Rp274
(I53
I300
tp275
S'DECK'
p276
tp277
a(g1
(g5
S'\x9c\x95\x90R\x80\x03E@'
p278
tp279
Rp280
(I86
I500
tp281
S'MKSI'
p282
tp283
a(g1
(g5
S'R\xad\xdd\x89\xd9\x06E@'
p284
tp285
Rp286
(I27
I300
tp287
S'CBRL'
p288
tp289
a(g1
(g5
S'\xa9r\x1f\xb7v#E@'
p290
tp291
Rp292
(I184
I300
tp293
S'RYN'
p294
tp295
a(g1
(g5
S'!\xa5o\xb5T&E@'
p296
tp297
Rp298
(I0
I300
tp299
S'TR'
p300
tp301
a(g1
(g5
S"\xd3\xe2\xae\x14\x8f'E@"
p302
tp303
Rp304
(I58
I500
tp305
S'NUS'
p306
tp307
a(g1
(g5
S'\x85\xe0L\x8c\x92(E@'
p308
tp309
Rp310
(I221
I300
tp311
S'NYT'
p312
tp313
a(g1
(g5
S'\xb3\xf8\xb6\x18\xee1E@'
p314
tp315
Rp316
(I60
I300
tp317
S'RS'
p318
tp319
a(g1
(g5
S'\x02\nT\tt8E@'
p320
tp321
Rp322
(I328
I300
tp323
S'TTC'
p324
tp325
a(g1
(g5
S'P\x88Uq\xd4NE@'
p326
tp327
Rp328
(I127
I300
tp329
S'LPX'
p330
tp331
a(g1
(g5
S'<j\x97\xeb\xfa~E@'
p332
tp333
Rp334
(I226
I500
tp335
S'PII'
p336
tp337
a(g1
(g5
S'\x13h\xef\xec\x9d\x95E@'
p338
tp339
Rp340
(I2
I300
tp341
S'TRMK'
p342
tp343
a(g1
(g5
S'u\xd3&2x\x96E@'
p344
tp345
Rp346
(I93
I500
tp347
S'KBH'
p348
tp349
a(g1
(g5
S'D]"\x9cK\xa9E@'
p350
tp351
Rp352
(I135
I500
tp353
S'BRO'
p354
tp355
a(g1
(g5
S'\xa8O2P\xf3\xadE@'
p356
tp357
Rp358
(I213
I300
tp359
S'THO'
p360
tp361
a(g1
(g5
S'&\x9c\xb0^\xd7\xbcE@'
p362
tp363
Rp364
(I15
I300
tp365
S'KRC'
p366
tp367
a(g1
(g5
S'\x91\xbc.\xc35\xc3E@'
p368
tp369
Rp370
(I94
I500
tp371
S'DBD'
p372
tp373
a(g1
(g5
S'`3\xf8\xddr\xf0E@'
p374
tp375
Rp376
(I96
I300
tp377
S'JBLU'
p378
tp379
a(g1
(g5
S'(H9;\xe5-F@'
p380
tp381
Rp382
(I176
I500
tp383
S'EV'
p384
tp385
a(g1
(g5
S'@\xab\x0f\xa5\xaa8F@'
p386
tp387
Rp388
(I225
I300
tp389
S'PZZA'
p390
tp391
a(g1
(g5
S'\x1a\xb2\xd5l\xeaLF@'
p392
tp393
Rp394
(I17
I500
tp395
S'LM'
p396
tp397
a(g1
(g5
S'\xfc\xc2 \x04\x00aF@'
p398
tp399
Rp400
(I4
I100
tp401
S'CSL'
p402
tp403
a(g1
(g5
S'\x00\xad&@\x8fhF@'
p404
tp405
Rp406
(I331
I100
tp407
S'CRUS'
p408
tp409
a(g1
(g5
S'%H\xfd\xcc\xc8uF@'
p410
tp411
Rp412
(I274
I500
tp413
S'WST'
p414
tp415
a(g1
(g5
S'\xa4\xc5,?\x19wF@'
p416
tp417
Rp418
(I254
I300
tp419
S'BIO'
p420
tp421
a(g1
(g5
S'\xcb\xf7G\xcd5\x80F@'
p422
tp423
Rp424
(I179
I300
tp425
S'CBT'
p426
tp427
a(g1
(g5
S'\xd7\x86WP\xfa\x89F@'
p428
tp429
Rp430
(I48
I300
tp431
S'GEF'
p432
tp433
a(g1
(g5
S'\xca3\x9f\x01\xde\x90F@'
p434
tp435
Rp436
(I261
I500
tp437
S'CGNX'
p438
tp439
a(g1
(g5
S'\xb8E\x1a\xdb\x82\xa1F@'
p440
tp441
Rp442
(I80
I500
tp443
S'OZRK'
p444
tp445
a(g1
(g5
S"4'b=\xd2\xacF@"
p446
tp447
Rp448
(I151
I300
tp449
S'IDTI'
p450
tp451
a(g1
(g5
S'B\x8bu\xd7\xfd\xbdF@'
p452
tp453
Rp454
(I138
I300
tp455
S'UTHR'
p456
tp457
a(g1
(g5
S'};d \xa1\xd2F@'
p458
tp459
Rp460
(I41
I300
tp461
S'RBC'
p462
tp463
a(g1
(g5
S'\x00\xd3\xfaOv\xe5F@'
p464
tp465
Rp466
(I76
I300
tp467
S'MCY'
p468
tp469
a(g1
(g5
S'\xcfu\x93\x98\x06\xeaF@'
p470
tp471
Rp472
(I66
I500
tp473
S'WTR'
p474
tp475
a(g1
(g5
S'\xf3\xff\x9e\xde\xe7\xebF@'
p476
tp477
Rp478
(I46
I300
tp479
S'SKT'
p480
tp481
a(g1
(g5
S'l.\x0f\xbc6\xfdF@'
p482
tp483
Rp484
(I49
I300
tp485
S'BID'
p486
tp487
a(g1
(g5
S'\xfd\x9c\x89\xd6\xb9\x08G@'
p488
tp489
Rp490
(I132
I500
tp491
S'HAIN'
p492
tp493
a(g1
(g5
S'\xd8\x0f\xf3\xe9\xc6\x08G@'
p494
tp495
Rp496
(I32
I300
tp497
S'SIVB'
p498
tp499
a(g1
(g5
S'\x04L\xde\xe4a\nG@'
p500
tp501
Rp502
(I9
I500
tp503
S'TCO'
p504
tp505
a(g1
(g5
S'\x047\\Y\xbb\x0fG@'
p506
tp507
Rp508
(I10
I100
tp509
S'VSAT'
p510
tp511
a(g1
(g5
S'\x17B\xe4\xba\xb5\x17G@'
p512
tp513
Rp514
(I3
I300
tp515
S'NCR'
p516
tp517
a(g1
(g5
S'\x98\x92\xb9\x03Y\x1bG@'
p518
tp519
Rp520
(I3
I300
tp521
S'BMS'
p522
tp523
a(g1
(g5
S'\x1f\xb6yo\xdc%G@'
p524
tp525
Rp526
(I108
I500
tp527
S'INT'
p528
tp529
a(g1
(g5
S'O\x16x\xe7\xca(G@'
p530
tp531
Rp532
(I221
I300
tp533
S'GHC'
p534
tp535
a(g1
(g5
S'\x85\xcdW\xa8 5G@'
p536
tp537
Rp538
(I0
I300
tp539
S'EAT'
p540
tp541
a(g1
(g5
S'b)\x7f\xc7\xfa<G@'
p542
tp543
Rp544
(I23
I500
tp545
S'JKHY'
p546
tp547
a(g1
(g5
S'I\xe8b\x1a\x03?G@'
p548
tp549
Rp550
(I76
I500
tp551
S'SAM'
p552
tp553
a(g1
(g5
S'\xfa\x81\x85q\xb3OG@'
p554
tp555
Rp556
(I169
I100
tp557
S'NDSN'
p558
tp559
a(g1
(g5
S'\xd5\xd7)cATG@'
p560
tp561
Rp562
(I1
I300
tp563
S'CAKE'
p564
tp565
a(g1
(g5
S'^\x9f\xfc\xa2\xf6TG@'
p566
tp567
Rp568
(I91
I300
tp569
S'THC'
p570
tp571
a(g1
(g5
S'\xaf%\xc5\xf0\x7fWG@'
p572
tp573
Rp574
(I232
I300
tp575
S'PBI'
p576
tp577
a(g1
(g5
S'\xe32b\xd0\xc7eG@'
p578
tp579
Rp580
(I40
I300
tp581
S'AKRX'
p582
tp583
a(g1
(g5
S'\xce\xe3\xd3\xe3\xf4lG@'
p584
tp585
Rp586
(I363
I300
tp587
S'KEX'
p588
tp589
a(g1
(g5
S'\x0c7\xab\x11\xe7nG@'
p590
tp591
Rp592
(I7
I300
tp593
S'DLX'
p594
tp595
a(g1
(g5
S'\xad\xffU\\\xb8}G@'
p596
tp597
Rp598
(I10
I300
tp599
S'CR'
p600
tp601
a(g1
(g5
S'\xc1D\x96\xce\x06~G@'
p602
tp603
Rp604
(I310
I300
tp605
S'UGI'
p606
tp607
a(g1
(g5
S'\xf9g#\x08\x1f\x82G@'
p608
tp609
Rp610
(I81
I300
tp611
S'ACXM'
p612
tp613
a(g1
(g5
S'_\x85\x198\xbf\x87G@'
p614
tp615
Rp616
(I136
I100
tp617
S'EME'
p618
tp619
a(g1
(g5
S'\xd6[\xb9`\xaa\x89G@'
p620
tp621
Rp622
(I167
I300
tp623
S'KMT'
p624
tp625
a(g1
(g5
S'\xea\xf7\xcd\xf9^\x9dG@'
p626
tp627
Rp628
(I0
I300
tp629
S'BKH'
p630
tp631
a(g1
(g5
S'\xa2\xc8-\xaby\xa2G@'
p632
tp633
Rp634
(I31
I100
tp635
S'CMP'
p636
tp637
a(g1
(g5
S'\x83\x9a+\xd8\x84\xb2G@'
p638
tp639
Rp640
(I25
I100
tp641
S'SM'
p642
tp643
a(g1
(g5
S'[:\xd8kO\xb6G@'
p644
tp645
Rp646
(I121
I100
tp647
S'DO'
p648
tp649
a(g1
(g5
S'\xd5\xa5\x06\x01\xf3\xcaG@'
p650
tp651
Rp652
(I99
I300
tp653
S'POL'
p654
tp655
a(g1
(g5
S'\x8cJ\x00(Q\xd3G@'
p656
tp657
Rp658
(I124
I500
tp659
S'MSCC'
p660
tp661
a(g1
(g5
S'E%\xbb\x11\xa9\xd8G@'
p662
tp663
Rp664
(I281
I300
tp665
S'ZBRA'
p666
tp667
a(g1
(g5
S'{d\x10\xa0\x98\xe9G@'
p668
tp669
Rp670
(I58
I300
tp671
S'WSM'
p672
tp673
a(g1
(g5
S"\x9f'\xf5O\x02\xf0G@"
p674
tp675
Rp676
(I366
I300
tp677
S'CRS'
p678
tp679
a(g1
(g5
S'\x01\xaf{\xcd\xcb\xf2G@'
p680
tp681
Rp682
(I5
I300
tp683
S'HE'
p684
tp685
a(g1
(g5
S'5\x01z\xf4\x91\xf8G@'
p686
tp687
Rp688
(I33
I500
tp689
S'ULTI'
p690
tp691
a(g1
(g5
S'\xbb\xafh\x80B\x01H@'
p692
tp693
Rp694
(I75
I300
tp695
S'BIG'
p696
tp697
a(g1
(g5
S'\xb4MR\x1d\x93\x07H@'
p698
tp699
Rp700
(I28
I100
tp701
S'JBL'
p702
tp703
a(g1
(g5
S'7y\\\xdd/\rH@'
p704
tp705
Rp706
(I13
I100
tp707
S'SON'
p708
tp709
a(g1
(g5
S'\x01\xcbL\xeawJH@'
p710
tp711
Rp712
(I103
I100
tp713
S'BC'
p714
tp715
a(g1
(g5
S'\xb3j\x11V\x00UH@'
p716
tp717
Rp718
(I105
I300
tp719
S'SLM'
p720
tp721
a(g1
(g5
S'F\xffV\x03y^H@'
p722
tp723
Rp724
(I66
I100
tp725
S'ATI'
p726
tp727
a(g1
(g5
S'\xe9+\x93\x9b\x07dH@'
p728
tp729
Rp730
(I67
I300
tp731
S'LSTR'
p732
tp733
a(g1
(g5
S'\x80~\x93`szH@'
p734
tp735
Rp736
(I19
I300
tp737
S'UFS'
p738
tp739
a(g1
(g5
S'\xad~\xcf\x0b&}H@'
p740
tp741
Rp742
(I607
I100
tp743
S'TRN'
p744
tp745
a(g1
(g5
S'\xf6\xe0nO\xd9}H@'
p746
tp747
Rp748
(I16
I300
tp749
S'DPZ'
p750
tp751
a(g1
(g5
S'j\x93\xcb\xab\xdc\x7fH@'
p752
tp753
Rp754
(I235
I100
tp755
S'CXW'
p756
tp757
a(g1
(g5
S'\x9cN\xac\x84\x9f\x80H@'
p758
tp759
Rp760
(I249
I500
tp761
S'MUR'
p762
tp763
a(g1
(g5
S'\x18\xae\x95\xfe\xba\x83H@'
p764
tp765
Rp766
(I12
I300
tp767
S'MKTX'
p768
tp769
a(g1
(g5
S'\xb8\xbb\xd6\n\x1d\x99H@'
p770
tp771
Rp772
(I16
I100
tp773
S'PLT'
p774
tp775
a(g1
(g5
S'\xed\xd2\xf8\x1a7\xccH@'
p776
tp777
Rp778
(I9
I300
tp779
S'GVA'
p780
tp781
a(g1
(g5
S'\x03\xc0\xaejT\xdbH@'
p782
tp783
Rp784
(I80
I100
tp785
S'CUZ'
p786
tp787
a(g1
(g5
S'j\xf4jNT\xe7H@'
p788
tp789
Rp790
(I211
I300
tp791
S'FHN'
p792
tp793
a(g1
(g5
S'[\xa8\xe1.^\xe9H@'
p794
tp795
Rp796
(I13
I100
tp797
S'MAN'
p798
tp799
a(g1
(g5
S'\xef\x1a`\xc8"\xebH@'
p800
tp801
Rp802
(I117
I500
tp803
S'GGG'
p804
tp805
a(g1
(g5
S'\x82-\x949\x89\xf2H@'
p806
tp807
Rp808
(I218
I300
tp809
S'CBSH'
p810
tp811
a(g1
(g5
S'F\x00D\x18L\xffH@'
p812
tp813
Rp814
(I134
I500
tp815
S'JW.A'
p816
tp817
a(g1
(g5
S'\xc7\x0e\x1e\xce6\x04I@'
p818
tp819
Rp820
(I287
I100
tp821
S'EPR'
p822
tp823
a(g1
(g5
S'\x19\xe9\xdc\xe3#$I@'
p824
tp825
Rp826
(I216
I300
tp827
S'OGE'
p828
tp829
a(g1
(g5
S'%@\x85\x94;*I@'
p830
tp831
Rp832
(I153
I500
tp833
S'CHDN'
p834
tp835
a(g1
(g5
S'\x19\xf4\xa1\xf480I@'
p836
tp837
Rp838
(I467
I500
tp839
S'TFX'
p840
tp841
a(g1
(g5
S'wI\x1b[\x02?I@'
p842
tp843
Rp844
(I313
I100
tp845
S'Y'
p846
tp847
a(g1
(g5
S'\xfb\x90\xc7<\x88?I@'
p848
tp849
Rp850
(I0
I300
tp851
S'NFG'
p852
tp853
a(g1
(g5
S'v\x055$\x9f?I@'
p854
tp855
Rp856
(I465
I100
tp857
S'NNN'
p858
tp859
a(g1
(g5
S'\x0f\x91\xe9j\x82CI@'
p860
tp861
Rp862
(I52
I100
tp863
S'GPOR'
p864
tp865
a(g1
(g5
S'\x9d\xa1\xce\xdc~DI@'
p866
tp867
Rp868
(I90
I300
tp869
S'SYNA'
p870
tp871
a(g1
(g5
S'S9\xb3\x1e2[I@'
p872
tp873
Rp874
(I57
I300
tp875
S'SXT'
p876
tp877
a(g1
(g5
S'\xee\x8c>\xb67[I@'
p878
tp879
Rp880
(I28
I300
tp881
S'JLL'
p882
tp883
a(g1
(g5
S'\x94Q\x94mJ_I@'
p884
tp885
Rp886
(I144
I300
tp887
S'IEX'
p888
tp889
a(g1
(g5
S"\x03x;D'cI@"
p890
tp891
Rp892
(I48
I500
tp893
S'OMI'
p894
tp895
a(g1
(g5
S'&\x8f\xcaJ\xa3iI@'
p896
tp897
Rp898
(I28
I100
tp899
S'AEO'
p900
tp901
a(g1
(g5
S'qT\xebG\xe7xI@'
p902
tp903
Rp904
(I26
I100
tp905
S'JCOM'
p906
tp907
a(g1
(g5
S'\x03\x92\xb7\xa6\xaeyI@'
p908
tp909
Rp910
(I351
I300
tp911
S'EGN'
p912
tp913
a(g1
(g5
S'\xf9\x1e\x1a\xf7\x97zI@'
p914
tp915
Rp916
(I186
I300
tp917
S'CAA'
p918
tp919
a(g1
(g5
S'p)\xb9\xc8\x93{I@'
p920
tp921
Rp922
(I15
I300
tp923
S'CNX'
p924
tp925
a(g1
(g5
S'\xac\x96R\xf5\xac\x82I@'
p926
tp927
Rp928
(I204
I300
tp929
S'TGNA'
p930
tp931
a(g1
(g5
S'w\xc6\n\xb3\xab\x87I@'
p932
tp933
Rp934
(I205
I300
tp935
S'AVP'
p936
tp937
a(g1
(g5
S'\xb2\x13^k\x1a\x90I@'
p938
tp939
Rp940
(I71
I500
tp941
S'VSH'
p942
tp943
a(g1
(g5
S'I\xf8\x8e\x10\x92\x90I@'
p944
tp945
Rp946
(I55
I300
tp947
S'WBS'
p948
tp949
a(g1
(g5
S'g\xd3\xffJ\xaa\x95I@'
p950
tp951
Rp952
(I83
I100
tp953
S'HOMB'
p954
tp955
a(g1
(g5
S';\xc2\xc1\x03\xd1\x95I@'
p956
tp957
Rp958
(I128
I100
tp959
S'GWR'
p960
tp961
a(g1
(g5
S'\xc03\x89<5\xa2I@'
p962
tp963
Rp964
(I53
I300
tp965
S'LECO'
p966
tp967
a(g1
(g5
S'Z\x8e\xc2p\x0f\xabI@'
p968
tp969
Rp970
(I8
I300
tp971
S'BOH'
p972
tp973
a(g1
(g5
S'N\x90\xc4\x0e\xa9\xb1I@'
p974
tp975
Rp976
(I513
I300
tp977
S'RPM'
p978
tp979
a(g1
(g5
S'\x96<\x81\x11\xf5\xbdI@'
p980
tp981
Rp982
(I131
I300
tp983
S'WR'
p984
tp985
a(g1
(g5
S'\xec\n]\xef\x02\xc8I@'
p986
tp987
Rp988
(I118
I500
tp989
S'SCI'
p990
tp991
a(g1
(g5
S'#\xd6\x11\x19\x9f\xd3I@'
p992
tp993
Rp994
(I49
I300
tp995
S'MPWR'
p996
tp997
a(g1
(g5
S'\xd6`\x1eu\x00\xe1I@'
p998
tp999
Rp1000
(I29
I100
tp1001
S'IPGP'
p1002
tp1003
a(g1
(g5
S'0;\xdd\xddU\xf1I@'
p1004
tp1005
Rp1006
(I61
I300
tp1007
S'FNB'
p1008
tp1009
a(g1
(g5
S'\xf1\xe4\xdbuM\xf5I@'
p1010
tp1011
Rp1012
(I104
I100
tp1013
S'HRC'
p1014
tp1015
a(g1
(g5
S'v\xfd\x96zZ\x00J@'
p1016
tp1017
Rp1018
(I70
I300
tp1019
S'CASY'
p1020
tp1021
a(g1
(g5
S'`\x03\x954\xc3\x00J@'
p1022
tp1023
Rp1024
(I25
I300
tp1025
S'ATO'
p1026
tp1027
a(g1
(g5
S'\x13\x08\x8b\xe1\xe6\x03J@'
p1028
tp1029
Rp1030
(I102
I300
tp1031
S'SIX'
p1032
tp1033
a(g1
(g5
S'\xe4c\x81dd\x0eJ@'
p1034
tp1035
Rp1036
(I58
I500
tp1037
S'LII'
p1038
tp1039
a(g1
(g5
S'\xf4U\xde\x0eW\x10J@'
p1040
tp1041
Rp1042
(I210
I300
tp1043
S'RDC'
p1044
tp1045
a(g1
(g5
S"\x1e\x1d\xa8\xd0'\x14J@"
p1046
tp1047
Rp1048
(I218
I300
tp1049
S'HNI'
p1050
tp1051
a(g1
(g5
S'\x14\xe7\xd4\r\xee\x14J@'
p1052
tp1053
Rp1054
(I324
I100
tp1055
S'OHI'
p1056
tp1057
a(g1
(g5
S'\xf1E\tv\xfd\x15J@'
p1058
tp1059
Rp1060
(I139
I300
tp1061
S'WRI'
p1062
tp1063
a(g1
(g5
S'F\x97\x18!\xe2%J@'
p1064
tp1065
Rp1066
(I297
I300
tp1067
S'WERN'
p1068
tp1069
a(g1
(g5
S'\xa2c\xf3\xb9\r*J@'
p1070
tp1071
Rp1072
(I52
I100
tp1073
S'GME'
p1074
tp1075
a(g1
(g5
S'\x82Eo\xdd\xeb<J@'
p1076
tp1077
Rp1078
(I88
I100
tp1079
S'UNFI'
p1080
tp1081
a(g1
(g5
S'@\xda\x10\xafUFJ@'
p1082
tp1083
Rp1084
(I0
I100
tp1085
S'ESL'
p1086
tp1087
a(g1
(g5
S'\x13\xe8w.cIJ@'
p1088
tp1089
Rp1090
(I194
I300
tp1091
S'WAB'
p1092
tp1093
a(g1
(g5
S'\nF\x97\xeb\xb6MJ@'
p1094
tp1095
Rp1096
(I555
I300
tp1097
S'WGL'
p1098
tp1099
a(g1
(g5
S'BX\xb7=gRJ@'
p1100
tp1101
Rp1102
(I3
I100
tp1103
S'AVT'
p1104
tp1105
a(g1
(g5
S'9%\xac\x94\x16SJ@'
p1106
tp1107
Rp1108
(I76
I100
tp1109
S'WAFD'
p1110
tp1111
a(g1
(g5
S'8\x93\x07\xe9\xae]J@'
p1112
tp1113
Rp1114
(I372
I100
tp1115
S'CW'
p1116
tp1117
a(g1
(g5
S'\xd6\x0cT\xa02`J@'
p1118
tp1119
Rp1120
(I20
I300
tp1121
S'NWE'
p1122
tp1123
a(g1
(g5
S'x\xf3\xcc\xcf$kJ@'
p1124
tp1125
Rp1126
(I42
I100
tp1127
S'NATI'
p1128
tp1129
a(g1
(g5
S'\xf3\xb1G\x10\xaenJ@'
p1130
tp1131
Rp1132
(I43
I300
tp1133
S'TCBI'
p1134
tp1135
a(g1
(g5
S'g_B\xb6\xa8pJ@'
p1136
tp1137
Rp1138
(I79
I300
tp1139
S'HIW'
p1140
tp1141
a(g1
(g5
S'\x83\xca\x83@NvJ@'
p1142
tp1143
Rp1144
(I298
I100
tp1145
S'DCI'
p1146
tp1147
a(g1
(g5
S',\n.\xe9\xa3\x84J@'
p1148
tp1149
Rp1150
(I230
I100
tp1151
S'HBHC'
p1152
tp1153
a(g1
(g5
S'\x94\xc7\xde\xaa\x13\x89J@'
p1154
tp1155
Rp1156
(I8
I300
tp1157
S'MBFI'
p1158
tp1159
a(g1
(g5
S'B\xad\xd8\xa1\x99\x8dJ@'
p1160
tp1161
Rp1162
(I29
I300
tp1163
S'SBNY'
p1164
tp1165
a(g1
(g5
S'\x8a\xd2\xd6\xf5d\x90J@'
p1166
tp1167
Rp1168
(I410
I500
tp1169
S'DDS'
p1170
tp1171
a(g1
(g5
S'\xaa\xf2\xbb\x10E\x98J@'
p1172
tp1173
Rp1174
(I103
I100
tp1175
S'DRQ'
p1176
tp1177
a(g1
(g5
S'\xe1W\xa2\xae@\x9bJ@'
p1178
tp1179
Rp1180
(I117
I300
tp1181
S'VVC'
p1182
tp1183
a(g1
(g5
S'\xfe\x97\xb9\xfd"\xa8J@'
p1184
tp1185
Rp1186
(I316
I100
tp1187
S'MDU'
p1188
tp1189
a(g1
(g5
S'\xd1V\xe2?\x82\xaeJ@'
p1190
tp1191
Rp1192
(I116
I500
tp1193
S'CFR'
p1194
tp1195
a(g1
(g5
S'1Z\x9e\xa7\xba\xaeJ@'
p1196
tp1197
Rp1198
(I40
I300
tp1199
S'POOL'
p1200
tp1201
a(g1
(g5
S'\xab\xa5\xdd\xff\xdb\xb0J@'
p1202
tp1203
Rp1204
(I316
I100
tp1205
S'UMBF'
p1206
tp1207
a(g1
(g5
S'4\x99\x9f\x1e\xdf\xb4J@'
p1208
tp1209
Rp1210
(I0
I300
tp1211
S'SNV'
p1212
tp1213
a(g1
(g5
S'\x1c\xbd\xceS\x86\xb8J@'
p1214
tp1215
Rp1216
(I44
I100
tp1217
S'DST'
p1218
tp1219
a(g1
(g5
S'\xc25\xf3\x9f\xe2\xbcJ@'
p1220
tp1221
Rp1222
(I380
I300
tp1223
S'SWX'
p1224
tp1225
a(g1
(g5
S'\\,\x01W\xf9\xbfJ@'
p1226
tp1227
Rp1228
(I249
I300
tp1229
S'MTX'
p1230
tp1231
a(g1
(g5
S'\xf1+\x8b\r\xad\xc2J@'
p1232
tp1233
Rp1234
(I163
I100
tp1235
S'LYV'
p1236
tp1237
a(g1
(g5
S'\xd6\xde\x0ev\x06\xcaJ@'
p1238
tp1239
Rp1240
(I148
I300
tp1241
S'OI'
p1242
tp1243
a(g1
(g5
S'\xdbno7\x9d\xddJ@'
p1244
tp1245
Rp1246
(I41
I300
tp1247
S'AHL'
p1248
tp1249
a(g1
(g5
S'?\xeb\x9d\xc1\x11\xe1J@'
p1250
tp1251
Rp1252
(I218
I300
tp1253
S'ORI'
p1254
tp1255
a(g1
(g5
S'X\x0c#m\xae\xe3J@'
p1256
tp1257
Rp1258
(I164
I100
tp1259
S'RIG'
p1260
tp1261
a(g1
(g5
S'\xe3\x84.\xc9\xe6\xefJ@'
p1262
tp1263
Rp1264
(I1
I300
tp1265
S'LHO'
p1266
tp1267
a(g1
(g5
S'\x1c\xc5\x81\xb4\x14\xf0J@'
p1268
tp1269
Rp1270
(I24
I100
tp1271
S'CHFC'
p1272
tp1273
a(g1
(g5
S'\x8bB\x8cJ\xa8\xf0J@'
p1274
tp1275
Rp1276
(I246
I100
tp1277
S'ATGE'
p1278
tp1279
a(g1
(g5
S'\xddh\x10\x9a\x90\xf4J@'
p1280
tp1281
Rp1282
(I335
I100
tp1283
S'RGLD'
p1284
tp1285
a(g1
(g5
S'\xee5z\x89\x0e\xfbJ@'
p1286
tp1287
Rp1288
(I36
I300
tp1289
S'BWLD'
p1290
tp1291
a(g1
(g5
S'\x08\x97\xa3\x0f\x17\xfdJ@'
p1292
tp1293
Rp1294
(I81
I300
tp1295
S'FULT'
p1296
tp1297
a(g1
(g5
S'n\xcf\xdb\x84\x08\x01K@'
p1298
tp1299
Rp1300
(I208
I300
tp1301
S'THG'
p1302
tp1303
a(g1
(g5
S'YY\xad\xe1\x9f\x01K@'
p1304
tp1305
Rp1306
(I135
I100
tp1307
S'UBSI'
p1308
tp1309
a(g1
(g5
S'\xbf\x97\x15\x98\xb3\x13K@'
p1310
tp1311
Rp1312
(I76
I300
tp1313
S'MD'
p1314
tp1315
a(g1
(g5
S'\xc7\x8d\xb77@\x1dK@'
p1316
tp1317
Rp1318
(I13
I100
tp1319
S'NUVA'
p1320
tp1321
a(g1
(g5
S'\xa3D\x1b\x99\xb6!K@'
p1322
tp1323
Rp1324
(I125
I300
tp1325
S'ROL'
p1326
tp1327
a(g1
(g5
S'Z\xa4\x9ezA*K@'
p1328
tp1329
Rp1330
(I29
I300
tp1331
S'CRI'
p1332
tp1333
a(g1
(g5
S'T\x869\xf1b/K@'
p1334
tp1335
Rp1336
(I256
I100
tp1337
S'OA'
p1338
tp1339
a(g1
(g5
S'g\xfd\x08P\x8b1K@'
p1340
tp1341
Rp1342
(I103
I300
tp1343
S'CATY'
p1344
tp1345
a(g1
(g5
S'\xd1\xe3Y\x0c^BK@'
p1346
tp1347
Rp1348
(I69
I300
tp1349
S'MOH'
p1350
tp1351
a(g1
(g5
S'\x12\xa4\xce\xaa\xcdTK@'
p1352
tp1353
Rp1354
(I92
I300
tp1355
S'WCG'
p1356
tp1357
a(g1
(g5
S'K\xc9w\xccXXK@'
p1358
tp1359
Rp1360
(I73
I300
tp1361
S'FLO'
p1362
tp1363
a(g1
(g5
S'L\xce\x00\x00\xe9\\K@'
p1364
tp1365
Rp1366
(I51
I300
tp1367
S'SNX'
p1368
tp1369
a(g1
(g5
S'_\xe4WwDvK@'
p1370
tp1371
Rp1372
(I192
I100
tp1373
S'BDC'
p1374
tp1375
a(g1
(g5
S'M\x88\xe7\x85\x97\x83K@'
p1376
tp1377
Rp1378
(I204
I100
tp1379
S'ARW'
p1380
tp1381
a(g1
(g5
S'\xf4\xc9a\xb7&\x87K@'
p1382
tp1383
Rp1384
(I35
I300
tp1385
S'TXRH'
p1386
tp1387
a(g1
(g5
S'O\xde\t\xad\x9a\x90K@'
p1388
tp1389
Rp1390
(I56
I300
tp1391
S'BLKB'
p1392
tp1393
a(g1
(g5
S'\xbc\x96Lum\x9fK@'
p1394
tp1395
Rp1396
(I10
I100
tp1397
S'PNFP'
p1398
tp1399
a(g1
(g5
S'|\xc2\x03K\xc5\xa3K@'
p1400
tp1401
Rp1402
(I125
I100
tp1403
S'NJR'
p1404
tp1405
a(g1
(g5
S'$\xe5U\xf9\x01\xabK@'
p1406
tp1407
Rp1408
(I0
I300
tp1409
S'TPX'
p1410
tp1411
a(g1
(g5
S'o\x1eH$N\xb1K@'
p1412
tp1413
Rp1414
(I217
I300
tp1415
S'HUBB'
p1416
tp1417
a(g1
(g5
S'\x07\xcc\rW\xdb\xb5K@'
p1418
tp1419
Rp1420
(I2
I100
tp1421
S'FDS'
p1422
tp1423
a(g1
(g5
S'>\x7ft\x02w\xbeK@'
p1424
tp1425
Rp1426
(I101
I100
tp1427
S'HFC'
p1428
tp1429
a(g1
(g5
S'n\x0f\xf1U\x1b\xdbK@'
p1430
tp1431
Rp1432
(I90
I300
tp1433
S'CPT'
p1434
tp1435
a(g1
(g5
S'6\xed\x84\x83q\xe0K@'
p1436
tp1437
Rp1438
(I435
I100
tp1439
S'R'
p1440
tp1441
a(g1
(g5
S'\x80\xb7@M\xf4\xe0K@'
p1442
tp1443
Rp1444
(I72
I300
tp1445
S'TUP'
p1446
tp1447
a(g1
(g5
S'O\xa9%\xf9\xa1\xe6K@'
p1448
tp1449
Rp1450
(I263
I100
tp1451
S'ODP'
p1452
tp1453
a(g1
(g5
S'\xf9\xeei\x07c\xffK@'
p1454
tp1455
Rp1456
(I143
I300
tp1457
S'LPNT'
p1458
tp1459
a(g1
(g5
S'fK\xa4q\xd6"L@'
p1460
tp1461
Rp1462
(I251
I100
tp1463
S'VLY'
p1464
tp1465
a(g1
(g5
S'0\xd8\x907Q$L@'
p1466
tp1467
Rp1468
(I45
I100
tp1469
S'AN'
p1470
tp1471
a(g1
(g5
S'\x8dzg\xa22:L@'
p1472
tp1473
Rp1474
(I216
I100
tp1475
S'EWBC'
p1476
tp1477
a(g1
(g5
S'u\x9e\x90\xf20?L@'
p1478
tp1479
Rp1480
(I349
I100
tp1481
S'FR'
p1482
tp1483
a(g1
(g5
S'028\xdb8EL@'
p1484
tp1485
Rp1486
(I311
I100
tp1487
S'LNCE'
p1488
tp1489
a(g1
(g5
S'\xb0\xf4]\xd9\xf1ML@'
p1490
tp1491
Rp1492
(I18
I300
tp1493
S'PBH'
p1494
tp1495
a(g1
(g5
S'y_\xc4\x82U^L@'
p1496
tp1497
Rp1498
(I29
I100
tp1499
S'AGCO'
p1500
tp1501
a(g1
(g5
S'\x98f\xa0\x98\x01_L@'
p1502
tp1503
Rp1504
(I126
I300
tp1505
S'SMG'
p1506
tp1507
a(g1
(g5
S'b\x0evk\x96|L@'
p1508
tp1509
Rp1510
(I19
I100
tp1511
S'IBOC'
p1512
tp1513
a(g1
(g5
S'\xd9\xbf\xe1[\xc4\x95L@'
p1514
tp1515
Rp1516
(I146
I100
tp1517
S'HR'
p1518
tp1519
a(g1
(g5
S'J:a\xf4\xbc\x9aL@'
p1520
tp1521
Rp1522
(I168
I300
tp1523
S'SLAB'
p1524
tp1525
a(g1
(g5
S'C\xfc\xd9\xa1\xe4\xa7L@'
p1526
tp1527
Rp1528
(I203
I100
tp1529
S'ATR'
p1530
tp1531
a(g1
(g5
S'\xec3\xa9\xa9E\xb9L@'
p1532
tp1533
Rp1534
(I364
I100
tp1535
S'IDA'
p1536
tp1537
a(g1
(g5
S'"\x11\xb1\x04\x17\xbaL@'
p1538
tp1539
Rp1540
(I17
I500
tp1541
S'FICO'
p1542
tp1543
a(g1
(g5
S'\xb4-.=\xd8\xbbL@'
p1544
tp1545
Rp1546
(I262
I100
tp1547
S'TRMB'
p1548
tp1549
a(g1
(g5
S'r\xa0\xff\xfb\xff\xc6L@'
p1550
tp1551
Rp1552
(I192
I100
tp1553
S'INGR'
p1554
tp1555
a(g1
(g5
S"'t\xa0i\x15\xd7L@"
p1556
tp1557
Rp1558
(I501
I300
tp1559
S'AFG'
p1560
tp1561
a(g1
(g5
S'\xa7\xfe\xb5*m\xe1L@'
p1562
tp1563
Rp1564
(I307
I100
tp1565
S'TKR'
p1566
tp1567
a(g1
(g5
S'\xfa\xcc\xc5d\xe0\xe1L@'
p1568
tp1569
Rp1570
(I118
I100
tp1571
S'ENS'
p1572
tp1573
a(g1
(g5
S't\xd58\xe4^\xebL@'
p1574
tp1575
Rp1576
(I7
I100
tp1577
S'CLI'
p1578
tp1579
a(g1
(g5
S'^\x9aj#\xb2\x0eM@'
p1580
tp1581
Rp1582
(I136
I100
tp1583
S'CNO'
p1584
tp1585
a(g1
(g5
S'h\x17C\x16\xdb\x12M@'
p1586
tp1587
Rp1588
(I202
I500
tp1589
S'LFUS'
p1590
tp1591
a(g1
(g5
S'\xf1\x89^:\xc2\x15M@'
p1592
tp1593
Rp1594
(I345
I300
tp1595
S'GXP'
p1596
tp1597
a(g1
(g5
S"\x0c\xda\x8d\x9c_'M@"
p1598
tp1599
Rp1600
(I136
I300
tp1601
S'WOR'
p1602
tp1603
a(g1
(g5
S':v\x91P\xb4PM@'
p1604
tp1605
Rp1606
(I279
I100
tp1607
S'OLN'
p1608
tp1609
a(g1
(g5
S'f\xb5\xc6H\x1fRM@'
p1610
tp1611
Rp1612
(I193
I100
tp1613
S'PACW'
p1614
tp1615
a(g1
(g5
S'C\x13\xb2\x05 pM@'
p1616
tp1617
Rp1618
(I92
I100
tp1619
S'MPW'
p1620
tp1621
a(g1
(g5
S'\xb0 \x96K\x19qM@'
p1622
tp1623
Rp1624
(I34
I100
tp1625
S'SBH'
p1626
tp1627
a(g1
(g5
S'a`\xdf\xce\x9byM@'
p1628
tp1629
Rp1630
(I86
I100
tp1631
S'EPC'
p1632
tp1633
a(g1
(g5
S'\xad\xfc\xb2\xa6\x01\x7fM@'
p1634
tp1635
Rp1636
(I15
I300
tp1637
S'HLS'
p1638
tp1639
a(g1
(g5
S'\x155\xec\xa5V\x96M@'
p1640
tp1641
Rp1642
(I17
I300
tp1643
S'PNM'
p1644
tp1645
a(g1
(g5
S'\xca\x90\x9a\xe0\x87\xb4M@'
p1646
tp1647
Rp1648
(I187
I100
tp1649
S'DNB'
p1650
tp1651
a(g1
(g5
S'\xdf\x03\xc4{\xfc\xc3M@'
p1652
tp1653
Rp1654
(I59
I100
tp1655
S'PAY'
p1656
tp1657
a(g1
(g5
S'\xeb\xd7\x9ePa\xe2M@'
p1658
tp1659
Rp1660
(I23
I100
tp1661
S'BBBY'
p1662
tp1663
a(g1
(g5
S'\x87IR \xf4\xe5M@'
p1664
tp1665
Rp1666
(I342
I100
tp1667
S'RNR'
p1668
tp1669
a(g1
(g5
S'\xfa3\x88_[\x00N@'
p1670
tp1671
Rp1672
(I245
I100
tp1673
S'PTC'
p1674
tp1675
a(g1
(g5
S'1\x1c\xb6\xd46\x1dN@'
p1676
tp1677
Rp1678
(I30
I300
tp1679
S'SLGN'
p1680
tp1681
a(g1
(g5
S'\x80\xb7\x89\x958CN@'
p1682
tp1683
Rp1684
(I136
I100
tp1685
S'MSM'
p1686
tp1687
a(g1
(g5
S'=\xa4\x95\xe4l\x80N@'
p1688
tp1689
Rp1690
(I128
I100
tp1691
S'CIEN'
p1692
tp1693
a(g1
(g5
S'\xa8=\xbe \x8f\x84N@'
p1694
tp1695
Rp1696
(I220
I100
tp1697
S'NTCT'
p1698
tp1699
a(g1
(g5
S'B\xd7\x05\x1d=\xaaN@'
p1700
tp1701
Rp1702
(I57
I100
tp1703
S'DF'
p1704
tp1705
a(g1
(g5
S'\xf8>(\xc2\xf1\xb1N@'
p1706
tp1707
Rp1708
(I8
I300
tp1709
S'ACC'
p1710
tp1711
a(g1
(g5
S'\xc6\xdb\xaa\xfa\xbe\xb4N@'
p1712
tp1713
Rp1714
(I258
I100
tp1715
S'LSI'
p1716
tp1717
a(g1
(g5
S'\x95\xbd\xef\x11{\xcbN@'
p1718
tp1719
Rp1720
(I307
I100
tp1721
S'WTFC'
p1722
tp1723
a(g1
(g5
S'\x86\xeb$\xf3\xdb\xcbN@'
p1724
tp1725
Rp1726
(I10
I300
tp1727
S'WEX'
p1728
tp1729
a(g1
(g5
S'S\xa6f\xb2\x89\xeaN@'
p1730
tp1731
Rp1732
(I24
I100
tp1733
S'UMPQ'
p1734
tp1735
a(g1
(g5
S'\x92\xff\xf8FR\xf1N@'
p1736
tp1737
Rp1738
(I88
I100
tp1739
S'ASB'
p1740
tp1741
a(g1
(g5
S'\x94\xc4@\xea\xf8\xf9N@'
p1742
tp1743
Rp1744
(I271
I100
tp1745
S'GATX'
p1746
tp1747
a(g1
(g5
S'\xa3\x8f\x01\xf1\xb9\xfdN@'
p1748
tp1749
Rp1750
(I156
I100
tp1751
S'EDR'
p1752
tp1753
a(g1
(g5
S';_\xc5\x17u/O@'
p1754
tp1755
Rp1756
(I38
I100
tp1757
S'CVLT'
p1758
tp1759
a(g1
(g5
S'\xdb\x1e\xd0\xd6\xcd?O@'
p1760
tp1761
Rp1762
(I68
I300
tp1763
S'TECD'
p1764
tp1765
a(g1
(g5
S'\x1b\xea\xbf\xe4\xd5gO@'
p1766
tp1767
Rp1768
(I32
I100
tp1769
S'DKS'
p1770
tp1771
a(g1
(g5
S'\xfbT\xe4\xa9\x86\x82O@'
p1772
tp1773
Rp1774
(I46
I100
tp1775
S'TDY'
p1776
tp1777
a(g1
(g5
S'\xf0\x8e~\xfdi\xcfO@'
p1778
tp1779
Rp1780
(I242
I100
tp1781
S'ACIW'
p1782
tp1783
a(g1
(g5
S'\xa9\x1fu\xed\x8d\x08P@'
p1784
tp1785
Rp1786
(I146
I100
tp1787
S'KMPR'
p1788
tp1789
a(g1
(g5
S'\x8du\xfa\xdf\x7f\x13P@'
p1790
tp1791
Rp1792
(I130
I100
tp1793
S'DEI'
p1794
tp1795
a(g1
(g5
S'\xf0\xb2\x8aG\xdd\x17P@'
p1796
tp1797
Rp1798
(I105
I100
tp1799
S'CVG'
p1800
tp1801
a(g1
(g5
S'\x00\xc62-\xa6\x1dP@'
p1802
tp1803
Rp1804
(I0
I100
tp1805
S'LPT'
p1806
tp1807
a(g1
(g5
S'B\x97\xcbw\xcb#P@'
p1808
tp1809
Rp1810
(I18
I100
tp1811
S'X'
p1812
tp1813
a(g1
(g5
S'\xe2\xd1\x8e\x07\x8e3P@'
p1814
tp1815
Rp1816
(I83
I100
tp1817
S'SNH'
p1818
tp1819
a(g1
(g5
S"\xcc7'8y5P@"
p1820
tp1821
Rp1822
(I262
I100
tp1823
S'CRL'
p1824
tp1825
a(g1
(g5
S'\xe3kS\x94\xf68P@'
p1826
tp1827
Rp1828
(I119
I300
tp1829
S'WWD'
p1830
tp1831
a(g1
(g5
S'_\x10\x0f\x01\xe1VP@'
p1832
tp1833
Rp1834
(I2
I100
tp1835
S'CLGX'
p1836
tp1837
a(g1
(g5
S'&X\x82\xfdh\xa6P@'
p1838
tp1839
Rp1840
(I36
I100
tp1841
S'MDRX'
p1842
tp1843
a(g1
(g5
S'Y\xee\x0b\xc6\x9b\xa6P@'
p1844
tp1845
Rp1846
(I35
I100
tp1847
S'KBR'
p1848
tp1849
a(g1
(g5
S'\xf4\x0e7\x8b\xc6\xcbP@'
p1850
tp1851
Rp1852
(I90
I100
tp1853
S'FII'
p1854
tp1855
a(g1
(g5
S'\xadY\xbc\xbb\xb9\xfeP@'
p1856
tp1857
Rp1858
(I128
I100
tp1859
S'CPE'
p1860
tp1861
a(g1
(g5
S'T`\xe8|\x89\x05Q@'
p1862
tp1863
Rp1864
(I36
I100
tp1865
S'THS'
p1866
tp1867
a(g1
(g5
S'\xb0\xf9(\xcb\xfd\x1fQ@'
p1868
tp1869
Rp1870
(I68
I100
tp1871
S'DCT'
p1872
tp1873
a(g1
(g5
S'b\xf0\xf3\x96\xdd%Q@'
p1874
tp1875
Rp1876
(I0
I300
tp1877
S'AAN'
p1878
tp1879
a(g1
(g5
S'\xf9Mx~\x94\x95Q@'
p1880
tp1881
Rp1882
(I6
I100
tp1883
S'ISCA'
p1884
tp1885
a(g1
(g5
S'\xb9\xfa\x85\xd6\xd0\xd0Q@'
p1886
tp1887
Rp1888
(I222
I100
tp1889
S'TCF'
p1890
tp1891
a(g1
(g5
S':Q\x1e\xbf\xf0\xd0Q@'
p1892
tp1893
Rp1894
(I127
I100
tp1895
S'GNW'
p1896
tp1897
a(g1
(g5
S'\xbc\xb0|\xc4\xa7\xdeQ@'
p1898
tp1899
Rp1900
(I177
I100
tp1901
S'NYCB'
p1902
tp1903
a(g1
(g5
S'\xeb\x9ao\xbc.&R@'
p1904
tp1905
Rp1906
(I74
I100
tp1907
S'HPT'
p1908
tp1909
a(g1
(g5
S'\x9f\xe6M-\x0f\xfeR@'
p1910
tp1911
Rp1912
(I152
I100
tp1913
S'SF'
p1914
tp1915
a(g1
(g5
S'\xfb\xac\xd8\xa2\xf3vU@'
p1916
tp1917
Rp1918
(I92
I100
tp1919
S'FSLR'
p1920
tp1921
a.