(lp0
(F16.17344898769925
(I151
I500
tp1
S'SWKS'
p2
tp3
a(F17.260096780470512
(I0
I300
tp4
S'QCOM'
p5
tp6
a(F20.59546707091879
(I10
I500
tp7
S'BBY'
p8
tp9
a(F20.766052857688045
(I261
I300
tp10
S'GLW'
p11
tp12
a(F23.1796518803359
(I215
I300
tp13
S'MOS'
p14
tp15
a(F24.324705845420418
(I152
I500
tp16
S'TXN'
p17
tp18
a(F25.41449991000336
(I79
I300
tp19
S'CELG'
p20
tp21
a(F25.566554215318213
(I183
I300
tp22
S'NVDA'
p23
tp24
a(F26.061465077064884
(I4
I300
tp25
S'TSN'
p26
tp27
a(F27.128800418490467
(I3
I300
tp28
S'BIIB'
p29
tp30
a(F28.399963413357415
(I70
I500
tp31
S'AMAT'
p32
tp33
a(F29.30742131128707
(I263
I300
tp34
S'PKI'
p35
tp36
a(F29.361070616973926
(I15
I300
tp37
S'NFLX'
p38
tp39
a(F29.415293332787083
(I4
I300
tp40
S'GPS'
p41
tp42
a(F29.607129876506388
(I225
I500
tp43
S'VLO'
p44
tp45
a(F29.627763507159045
(I33
I300
tp46
S'XLNX'
p47
tp48
a(F29.699973827448876
(I28
I100
tp49
S'NTAP'
p50
tp51
a(F29.922554991835213
(I0
I300
tp52
S'AMGN'
p53
tp54
a(F30.26056276989387
(I163
I500
tp55
S'REGN'
p56
tp57
a(F31.29977671973042
(I9
I500
tp58
S'ADBE'
p59
tp60
a(F31.708728521708316
(I23
I100
tp61
S'ALXN'
p62
tp63
a(F31.71492475711034
(I148
I300
tp64
S'AJG'
p65
tp66
a(F31.876435851343555
(I107
I500
tp67
S'RHI'
p68
tp69
a(F32.0520444312055
(I17
I300
tp70
S'MRK'
p71
tp72
a(F32.771447260918286
(I33
I300
tp73
S'CSCO'
p74
tp75
a(F33.84874009840801
(I280
I500
tp76
S'NUE'
p77
tp78
a(F34.050497097415295
(I86
I300
tp79
S'EXPD'
p80
tp81
a(F34.44362937709266
(I235
I300
tp82
S'WMT'
p83
tp84
a(F34.47433834326109
(I4
I300
tp85
S'K'
p86
tp87
a(F34.91905435579794
(I142
I500
tp88
S'INCY'
p89
tp90
a(F35.36817877584567
(I120
I500
tp91
S'PFE'
p92
tp93
a(F35.573281580814054
(I41
I100
tp94
S'PHM'
p95
tp96
a(F35.69149713679446
(I6
I500
tp97
S'WFC'
p98
tp99
a(F35.714740802228974
(I0
I500
tp100
S'MSFT'
p101
tp102
a(F35.81876391454812
(I224
I500
tp103
S'MO'
p104
tp105
a(F35.971256729241475
(I80
I300
tp106
S'SYK'
p107
tp108
a(F36.05487064209538
(I36
I500
tp109
S'MSI'
p110
tp111
a(F36.19305099852551
(I16
I100
tp112
S'DGX'
p113
tp114
a(F36.268746175798775
(I18
I300
tp115
S'VRTX'
p116
tp117
a(F36.276762617003286
(I123
I300
tp118
S'LUK'
p119
tp120
a(F36.772612572076056
(I106
I500
tp121
S'INTC'
p122
tp123
a(F36.81545227649015
(I168
I300
tp124
S'HD'
p125
tp126
a(F36.93366038030266
(I42
I300
tp127
S'CTL'
p128
tp129
a(F36.96122028152384
(I27
I100
tp130
S'CTXS'
p131
tp132
a(F37.18619214315964
(I25
I300
tp133
S'TSCO'
p134
tp135
a(F37.228133587416245
(I192
I300
tp136
S'WDC'
p137
tp138
a(F37.42957511017122
(I238
I500
tp139
S'AAPL'
p140
tp141
a(F37.4499854643417
(I4
I300
tp142
S'LLY'
p143
tp144
a(F37.67251324553001
(I7
I300
tp145
S'MMC'
p146
tp147
a(F37.70800159520293
(I6
I500
tp148
S'JEC'
p149
tp150
a(F37.93867253341389
(I28
I300
tp151
S'LRCX'
p152
tp153
a(F38.01954180940535
(I78
I100
tp154
S'TWX'
p155
tp156
a(F38.15456443962527
(I46
I500
tp157
S'EOG'
p158
tp159
a(F38.360277585776444
(I247
I300
tp160
S'GILD'
p161
tp162
a(F38.4723784590965
(I53
I300
tp163
S'EW'
p164
tp165
a(F38.48055348613166
(I122
I500
tp166
S'ZION'
p167
tp168
a(F38.53919389961065
(I300
I500
tp169
S'HES'
p170
tp171
a(F38.548274367685366
(I9
I300
tp172
S'DHR'
p173
tp174
a(F38.58812680242909
(I31
I100
tp175
S'DISH'
p176
tp177
a(F38.60042162246058
(I140
I500
tp178
S'TGT'
p179
tp180
a(F38.62511751158338
(I135
I500
tp181
S'USB'
p182
tp183
a(F38.6413142589659
(I19
I300
tp184
S'DIS'
p185
tp186
a(F38.907661450650686
(I258
I500
tp187
S'AET'
p188
tp189
a(F39.16378209022446
(I53
I500
tp190
S'ALGN'
p191
tp192
a(F39.34824964609212
(I17
I300
tp193
S'VFC'
p194
tp195
a(F39.392787590741726
(I6
I500
tp196
S'MKC'
p197
tp198
a(F39.47484020329748
(I0
I100
tp199
S'ETFC'
p200
tp201
a(F39.67912888454313
(I153
I300
tp202
S'LOW'
p203
tp204
a(F39.736200279830115
(I263
I500
tp205
S'OXY'
p206
tp207
a(F39.78444289606206
(I148
I500
tp208
S'CMCSA'
p209
tp210
a(F39.9216203715722
(I96
I300
tp211
S'TSS'
p212
tp213
a(F40.0157225557325
(I62
I500
tp214
S'DLTR'
p215
tp216
a(F40.169084600407025
(I68
I300
tp217
S'PCLN'
p218
tp219
a(F40.29487185498768
(I429
I500
tp220
S'ALK'
p221
tp222
a(F40.41009684797347
(I104
I300
tp223
S'PKG'
p224
tp225
a(F40.55801294889577
(I1
I300
tp226
S'HBI'
p227
tp228
a(F40.736179699394235
(I81
I500
tp229
S'COG'
p230
tp231
a(F40.802670345130764
(I283
I500
tp232
S'ANDV'
p233
tp234
a(F40.98363952226883
(I119
I500
tp235
S'BK'
p236
tp237
a(F41.04809686254879
(I141
I300
tp238
S'HOLX'
p239
tp240
a(F41.18492215963756
(I7
I300
tp241
S'AFL'
p242
tp243
a(F41.29216984055568
(I135
I500
tp244
S'OMC'
p245
tp246
a(F41.31078845057862
(I144
I300
tp247
S'NKE'
p248
tp249
a(F41.3218393566739
(I101
I500
tp250
S'MGM'
p251
tp252
a(F41.39329678885846
(I108
I500
tp253
S'JPM'
p254
tp255
a(F41.47147121462365
(I41
I100
tp256
S'LB'
p257
tp258
a(F41.532074952782864
(I170
I100
tp259
S'LH'
p260
tp261
a(F41.942402913255464
(I292
I500
tp262
S'STZ'
p263
tp264
a(F42.00126338777887
(I122
I300
tp265
S'MRO'
p266
tp267
a(F42.47718515610325
(I216
I300
tp268
S'PCAR'
p269
tp270
a(F42.556135507864525
(I128
I500
tp271
S'CLX'
p272
tp273
a(F42.58550316550033
(I7
I300
tp274
S'BDX'
p275
tp276
a(F42.67468332608011
(I239
I300
tp277
S'IBM'
p278
tp279
a(F42.676873927336125
(I351
I300
tp280
S'COP'
p281
tp282
a(F42.686572911464125
(I222
I300
tp283
S'LEN'
p284
tp285
a(F42.75843334368065
(I222
I300
tp286
S'F'
p287
tp288
a(F42.77828305685692
(I118
I300
tp289
S'RJF'
p290
tp291
a(F42.90267980740189
(I121
I300
tp292
S'LUV'
p293
tp294
a(F42.9173128527814
(I53
I100
tp295
S'AES'
p296
tp297
a(F42.92652548695163
(I127
I100
tp298
S'NEM'
p299
tp300
a(F42.94210414962032
(I80
I300
tp301
S'TIF'
p302
tp303
a(F42.94240011809549
(I233
I500
tp304
S'KR'
p305
tp306
a(F43.268587754085466
(I388
I300
tp307
S'CMI'
p308
tp309
a(F43.30436487158045
(I22
I500
tp310
S'CA'
p311
tp312
a(F43.3107771061788
(I211
I300
tp313
S'NTRS'
p314
tp315
a(F43.419729879675984
(I48
I300
tp316
S'GGP'
p317
tp318
a(F43.453150288954596
(I12
I100
tp319
S'COF'
p320
tp321
a(F43.47357499066961
(I0
I300
tp322
S'TMK'
p323
tp324
a(F43.51349855280217
(I94
I300
tp325
S'CNC'
p326
tp327
a(F43.66402500034807
(I275
I300
tp328
S'PPL'
p329
tp330
a(F43.673080961864194
(I12
I100
tp331
S'CHK'
p332
tp333
a(F43.68031589786648
(I128
I300
tp334
S'CI'
p335
tp336
a(F43.716711374800234
(I130
I500
tp337
S'BMY'
p338
tp339
a(F43.85754125843683
(I61
I500
tp340
S'COST'
p341
tp342
a(F43.93285846929039
(I62
I500
tp343
S'PAYX'
p344
tp345
a(F44.03517031161821
(I0
I500
tp346
S'ALB'
p347
tp348
a(F44.0881925821866
(I300
I500
tp349
S'NBL'
p350
tp351
a(F44.32492183436574
(I53
I300
tp352
S'AZO'
p353
tp354
a(F44.32764442243007
(I121
I500
tp355
S'ADSK'
p356
tp357
a(F44.33913910079862
(I63
I300
tp358
S'CCL'
p359
tp360
a(F44.34673365458888
(I234
I300
tp361
S'TAP'
p362
tp363
a(F44.34800858628029
(I101
I100
tp364
S'LEG'
p365
tp366
a(F44.377640444963596
(I204
I300
tp367
S'GE'
p368
tp369
a(F44.390643906650794
(I123
I500
tp370
S'AVY'
p371
tp372
a(F44.56736910490203
(I490
I300
tp373
S'SHW'
p374
tp375
a(F44.62849630775511
(I131
I500
tp376
S'BBT'
p377
tp378
a(F44.62937829000388
(I378
I300
tp379
S'VMC'
p380
tp381
a(F44.849316858401295
(I112
I300
tp382
S'ILMN'
p383
tp384
a(F45.01882776954441
(I149
I500
tp385
S'AXP'
p386
tp387
a(F45.051023537162386
(I57
I300
tp388
S'C'
p389
tp390
a(F45.188150997092464
(I122
I300
tp391
S'KLAC'
p392
tp393
a(F45.1900381616559
(I28
I100
tp394
S'IDXX'
p395
tp396
a(F45.20738523167435
(I231
I500
tp397
S'BLL'
p398
tp399
a(F45.349615821798615
(I276
I500
tp400
S'FISV'
p401
tp402
a(F45.504807859920945
(I221
I300
tp403
S'PGR'
p404
tp405
a(F45.5123455973438
(I331
I300
tp406
S'ROST'
p407
tp408
a(F45.58902605127404
(I49
I300
tp409
S'FLS'
p410
tp411
a(F45.59558675057901
(I113
I300
tp412
S'BEN'
p413
tp414
a(F45.59751560247051
(I55
I500
tp415
S'UHS'
p416
tp417
a(F45.7172836561708
(I82
I300
tp418
S'AVB'
p419
tp420
a(F45.76866767406101
(I249
I300
tp421
S'COO'
p422
tp423
a(F45.785057464379804
(I0
I300
tp424
S'UNH'
p425
tp426
a(F45.80880103114448
(I91
I300
tp427
S'MLM'
p428
tp429
a(F45.83334266635639
(I105
I300
tp430
S'CB'
p431
tp432
a(F45.90980059639513
(I367
I300
tp433
S'ADM'
p434
tp435
a(F46.009281483167484
(I137
I500
tp436
S'WMB'
p437
tp438
a(F46.04724029808631
(I207
I300
tp439
S'XOM'
p440
tp441
a(F46.1136144130234
(I213
I300
tp442
S'FITB'
p443
tp444
a(F46.1620696468077
(I149
I500
tp445
S'FMC'
p446
tp447
a(F46.188060925925846
(I199
I300
tp448
S'MCK'
p449
tp450
a(F46.219744014072624
(I25
I300
tp451
S'JWN'
p452
tp453
a(F46.293934005701004
(I54
I500
tp454
S'GPN'
p455
tp456
a(F46.31046405879858
(I4
I300
tp457
S'RF'
p458
tp459
a(F46.32575753013114
(I503
I300
tp460
S'ECL'
p461
tp462
a(F46.336976987118476
(I62
I300
tp463
S'FFIV'
p464
tp465
a(F46.38881096933372
(I17
I300
tp466
S'SLG'
p467
tp468
a(F46.40892556437941
(I11
I300
tp469
S'SCG'
p470
tp471
a(F46.410365997371876
(I23
I300
tp472
S'BXP'
p473
tp474
a(F46.412531245886
(I204
I300
tp475
S'HSY'
p476
tp477
a(F46.4658266787275
(I25
I300
tp478
S'HRL'
p479
tp480
a(F46.47732572878823
(I190
I500
tp481
S'TJX'
p482
tp483
a(F46.48326388721357
(I17
I100
tp484
S'RMD'
p485
tp486
a(F46.618175293380745
(I119
I100
tp487
S'GT'
p488
tp489
a(F46.62592395055291
(I395
I300
tp490
S'AOS'
p491
tp492
a(F46.63787138166927
(I25
I300
tp493
S'ITW'
p494
tp495
a(F46.70461386734371
(I451
I500
tp496
S'NOC'
p497
tp498
a(F46.74106469272801
(I118
I500
tp499
S'XRX'
p500
tp501
a(F46.7421372113331
(I77
I300
tp502
S'NWL'
p503
tp504
a(F46.75714499880853
(I205
I300
tp505
S'BAC'
p506
tp507
a(F46.77487417889751
(I27
I300
tp508
S'PBCT'
p509
tp510
a(F46.801470452838174
(I216
I300
tp511
S'CMA'
p512
tp513
a(F46.812197980480626
(I275
I500
tp514
S'FRT'
p515
tp516
a(F47.085726249017924
(I222
I300
tp517
S'CL'
p518
tp519
a(F47.09231204013851
(I52
I100
tp520
S'CERN'
p521
tp522
a(F47.10171108243275
(I11
I100
tp523
S'NDAQ'
p524
tp525
a(F47.1295697077452
(I0
I300
tp526
S'CAH'
p527
tp528
a(F47.1384090710033
(I0
I300
tp529
S'CHD'
p530
tp531
a(F47.143539494510264
(I101
I100
tp532
S'FCX'
p533
tp534
a(F47.14483019348687
(I208
I100
tp535
S'RRC'
p536
tp537
a(F47.345596265502884
(I14
I300
tp538
S'CNP'
p539
tp540
a(F47.436520587216336
(I304
I500
tp541
S'UNP'
p542
tp543
a(F47.4699189613038
(I7
I300
tp544
S'FL'
p545
tp546
a(F47.47610653618712
(I1
I300
tp547
S'HAS'
p548
tp549
a(F47.56336869957811
(I211
I300
tp550
S'LMT'
p551
tp552
a(F47.60514377087989
(I25
I300
tp553
S'WHR'
p554
tp555
a(F47.611259489864615
(I6
I500
tp556
S'HOG'
p557
tp558
a(F47.77917050973471
(I155
I100
tp559
S'WYNN'
p560
tp561
a(F47.80992202088233
(I48
I300
tp562
S'SPG'
p563
tp564
a(F47.848863083176745
(I32
I300
tp565
S'RL'
p566
tp567
a(F47.85209807971301
(I80
I300
tp568
S'ADS'
p569
tp570
a(F47.93276390143669
(I35
I100
tp571
S'ISRG'
p572
tp573
a(F47.97371022013046
(I130
I300
tp574
S'CTAS'
p575
tp576
a(F47.97405460439904
(I101
I100
tp577
S'KO'
p578
tp579
a(F48.02689751568928
(I9
I300
tp580
S'EXR'
p581
tp582
a(F48.08883904581097
(I231
I300
tp583
S'IPG'
p584
tp585
a(F48.093747140259964
(I217
I300
tp586
S'STT'
p587
tp588
a(F48.115192724026386
(I298
I100
tp589
S'VNO'
p590
tp591
a(F48.138129223298556
(I25
I300
tp592
S'SNA'
p593
tp594
a(F48.1385442362273
(I221
I300
tp595
S'MTB'
p596
tp597
a(F48.164982760811334
(I183
I500
tp598
S'ATVI'
p599
tp600
a(F48.17989802573128
(I213
I300
tp601
S'CPB'
p602
tp603
a(F48.20905933211538
(I196
I300
tp604
S'ORLY'
p605
tp606
a(F48.21810647352887
(I277
I500
tp607
S'SRE'
p608
tp609
a(F48.254955871099774
(I145
I300
tp610
S'EL'
p611
tp612
a(F48.38443950327266
(I77
I100
tp613
S'EXPE'
p614
tp615
a(F48.38473784191612
(I33
I300
tp616
S'MAA'
p617
tp618
a(F48.47839139754882
(I56
I300
tp619
S'MAC'
p620
tp621
a(F48.579802072405435
(I195
I300
tp622
S'EFX'
p623
tp624
a(F48.63975290080165
(I0
I300
tp625
S'HBAN'
p626
tp627
a(F48.64238053933106
(I49
I100
tp628
S'UDR'
p629
tp630
a(F48.65136280694618
(I125
I300
tp631
S'PVH'
p632
tp633
a(F48.65941900709177
(I29
I500
tp634
S'SYMC'
p635
tp636
a(F48.670494586691525
(I112
I500
tp637
S'ABC'
p638
tp639
a(F48.67788259698205
(I7
I300
tp640
S'D'
p641
tp642
a(F48.70982733453898
(I48
I300
tp643
S'NOV'
p644
tp645
a(F48.73509355531392
(I345
I300
tp646
S'BCR'
p647
tp648
a(F48.757956734718995
(I0
I300
tp649
S'FAST'
p650
tp651
a(F48.7606651325175
(I7
I300
tp652
S'WEC'
p653
tp654
a(F48.80336014751749
(I205
I300
tp655
S'PG'
p656
tp657
a(F48.81140743277608
(I58
I500
tp658
S'L'
p659
tp660
a(F48.82990873035007
(I197
I100
tp661
S'ESRX'
p662
tp663
a(F49.05814694656856
(I16
I300
tp664
S'HRB'
p665
tp666
a(F49.07873475980991
(I472
I100
tp667
S'ES'
p668
tp669
a(F49.18421134879853
(I64
I100
tp670
S'ESS'
p671
tp672
a(F49.238166409398694
(I312
I100
tp673
S'CINF'
p674
tp675
a(F49.241289521870925
(I224
I500
tp676
S'PSA'
p677
tp678
a(F49.24548421463126
(I102
I300
tp679
S'AYI'
p680
tp681
a(F49.27261617828098
(I398
I300
tp682
S'DE'
p683
tp684
a(F49.29364584747384
(I388
I300
tp685
S'SLB'
p686
tp687
a(F49.3323156503253
(I30
I100
tp688
S'XRAY'
p689
tp690
a(F49.35369408786947
(I0
I300
tp691
S'KEY'
p692
tp693
a(F49.46088039987064
(I60
I300
tp694
S'TROW'
p695
tp696
a(F49.46330887875177
(I70
I300
tp697
S'NFX'
p698
tp699
a(F49.5529602846333
(I183
I300
tp700
S'HPQ'
p701
tp702
a(F49.59344634934497
(I7
I300
tp703
S'DUK'
p704
tp705
a(F49.656001805751
(I469
I300
tp706
S'GWW'
p707
tp708
a(F49.75988687103881
(I33
I300
tp709
S'MTD'
p710
tp711
a(F49.794656224988096
(I137
I500
tp712
S'AIG'
p713
tp714
a(F49.81210958935773
(I89
I300
tp715
S'DHI'
p716
tp717
a(F49.82716489932108
(I7
I300
tp718
S'CHRW'
p719
tp720
a(F49.9153298389298
(I27
I500
tp721
S'KIM'
p722
tp723
a(F49.92918576916927
(I134
I500
tp724
S'JBHT'
p725
tp726
a(F49.941610637824844
(I6
I100
tp727
S'REG'
p728
tp729
a(F49.980167212988654
(I2
I300
tp730
S'PEP'
p731
tp732
a(F50.02127228978844
(I22
I300
tp733
S'ABT'
p734
tp735
a(F50.04398708705869
(I527
I300
tp736
S'CVS'
p737
tp738
a(F50.172332282588215
(I0
I300
tp739
S'LNC'
p740
tp741
a(F50.29967727769234
(I136
I500
tp742
S'UTX'
p743
tp744
a(F50.342665002684605
(I58
I100
tp745
S'VZ'
p746
tp747
a(F50.35075831876255
(I104
I100
tp748
S'MAS'
p749
tp750
a(F50.35657460153956
(I480
I100
tp751
S'ETR'
p752
tp753
a(F50.48929797489393
(I243
I500
tp754
S'SIG'
p755
tp756
a(F50.51211846292584
(I11
I300
tp757
S'PEG'
p758
tp759
a(F50.544578613341585
(I3
I100
tp760
S'HAL'
p761
tp762
a(F50.569300899214255
(I209
I300
tp763
S'HP'
p764
tp765
a(F50.570074474730426
(I7
I300
tp766
S'LNT'
p767
tp768
a(F50.70862278155834
(I515
I300
tp769
S'JNJ'
p770
tp771
a(F50.73946085168755
(I5
I100
tp772
S'CAG'
p773
tp774
a(F50.83837642879178
(I160
I300
tp775
S'RTN'
p776
tp777
a(F50.88960411134977
(I24
I300
tp778
S'IP'
p779
tp780
a(F50.91942410212248
(I5
I300
tp781
S'TDG'
p782
tp783
a(F50.98409542378966
(I518
I300
tp784
S'TMO'
p785
tp786
a(F51.28380327148618
(I393
I500
tp787
S'PPG'
p788
tp789
a(F51.32513946726018
(I96
I300
tp790
S'HUM'
p791
tp792
a(F51.40656069253993
(I108
I100
tp793
S'VTR'
p794
tp795
a(F51.468609557609284
(I591
I100
tp796
S'BA'
p797
tp798
a(F51.6130962767023
(I8
I300
tp799
S'XEL'
p800
tp801
a(F51.6433081883419
(I97
I100
tp802
S'KMB'
p803
tp804
a(F51.65173744578147
(I161
I300
tp805
S'DVN'
p806
tp807
a(F51.66809994941271
(I216
I300
tp808
S'SWK'
p809
tp810
a(F51.673473094146146
(I79
I100
tp811
S'MON'
p812
tp813
a(F51.72664056566309
(I381
I300
tp814
S'OKE'
p815
tp816
a(F51.76811849784859
(I50
I100
tp817
S'ANSS'
p818
tp819
a(F51.83103815516586
(I43
I300
tp820
S'PLD'
p821
tp822
a(F51.90373139353203
(I99
I100
tp823
S'APD'
p824
tp825
a(F51.90417646615141
(I133
I300
tp826
S'T'
p827
tp828
a(F52.04716001919835
(I40
I100
tp829
S'RCL'
p830
tp831
a(F52.175675746843204
(I205
I300
tp832
S'MMM'
p833
tp834
a(F52.17979905228408
(I72
I300
tp835
S'CSX'
p836
tp837
a(F52.218793804498944
(I303
I100
tp838
S'FDX'
p839
tp840
a(F52.25979826039464
(I343
I300
tp841
S'AME'
p842
tp843
a(F52.280449271075824
(I75
I100
tp844
S'GRMN'
p845
tp846
a(F52.36981138515862
(I244
I100
tp847
S'MAR'
p848
tp849
a(F52.47352128380918
(I17
I300
tp850
S'ADP'
p851
tp852
a(F52.50623152847289
(I150
I100
tp853
S'FLIR'
p854
tp855
a(F52.63433850825349
(I217
I300
tp856
S'PNC'
p857
tp858
a(F52.68178392442459
(I587
I100
tp859
S'GIS'
p860
tp861
a(F52.71278187200807
(I204
I300
tp862
S'DOV'
p863
tp864
a(F52.80380908689406
(I317
I100
tp865
S'NI'
p866
tp867
a(F52.905687187604805
(I98
I300
tp868
S'SBUX'
p869
tp870
a(F52.935082170407206
(I11
I300
tp871
S'O'
p872
tp873
a(F53.000513251456105
(I212
I300
tp874
S'AMZN'
p875
tp876
a(F53.12751201465986
(I130
I100
tp877
S'MHK'
p878
tp879
a(F53.24096606633327
(I33
I100
tp880
S'KMX'
p881
tp882
a(F53.31953771226553
(I30
I500
tp883
S'PX'
p884
tp885
a(F53.3775096035115
(I118
I500
tp886
S'PH'
p887
tp888
a(F53.52452577309098
(I459
I100
tp889
S'AMD'
p890
tp891
a(F53.544015757201194
(I102
I100
tp892
S'DVA'
p893
tp894
a(F53.56127874133733
(I194
I300
tp895
S'HSIC'
p896
tp897
a(F53.6898425391417
(I90
I100
tp898
S'VIAB'
p899
tp900
a(F53.6930776375607
(I193
I500
tp901
S'MCHP'
p902
tp903
a(F53.7995793807265
(I174
I500
tp904
S'SYY'
p905
tp906
a(F53.96671632463651
(I195
I100
tp907
S'IT'
p908
tp909
a(F54.00358662371372
(I404
I300
tp910
S'MCD'
p911
tp912
a(F54.06220879712699
(I83
I300
tp913
S'STI'
p914
tp915
a(F54.1180853681261
(I71
I300
tp916
S'WM'
p917
tp918
a(F54.14359643299118
(I36
I100
tp919
S'RHT'
p920
tp921
a(F54.2817871863973
(I3
I300
tp922
S'GS'
p923
tp924
a(F54.2980340175934
(I359
I100
tp925
S'NSC'
p926
tp927
a(F54.3176420479621
(I66
I100
tp928
S'BLK'
p929
tp930
a(F54.32306797559937
(I106
I500
tp931
S'TXT'
p932
tp933
a(F54.3451874786727
(I46
I100
tp934
S'CTSH'
p935
tp936
a(F54.46520691650308
(I34
I100
tp937
S'MS'
p938
tp939
a(F54.51474118946385
(I189
I300
tp940
S'RSG'
p941
tp942
a(F54.527945234800754
(I237
I300
tp943
S'IR'
p944
tp945
a(F54.528285029300285
(I37
I100
tp946
S'WAT'
p947
tp948
a(F54.609621201529976
(I351
I300
tp949
S'APA'
p950
tp951
a(F54.789423370261524
(I56
I500
tp952
S'URI'
p953
tp954
a(F54.7974740706357
(I342
I100
tp955
S'HCP'
p956
tp957
a(F54.88033919531222
(I47
I100
tp958
S'SPGI'
p959
tp960
a(F54.92901332434571
(I16
I100
tp961
S'EQR'
p962
tp963
a(F54.935044854626895
(I48
I100
tp964
S'UAA'
p965
tp966
a(F55.0796202022495
(I230
I300
tp967
S'BF.B'
p968
tp969
a(F55.183936915917315
(I84
I300
tp970
S'DTE'
p971
tp972
a(F55.18618962554851
(I304
I100
tp973
S'CAT'
p974
tp975
a(F55.20158403468215
(I1
I300
tp976
S'KSS'
p977
tp978
a(F55.21588457985142
(I21
I500
tp979
S'SO'
p980
tp981
a(F55.22751078517038
(I306
I300
tp982
S'CDNS'
p983
tp984
a(F55.38982306264212
(I10
I300
tp985
S'ARE'
p986
tp987
a(F55.50221424859075
(I520
I300
tp988
S'IFF'
p989
tp990
a(F55.54087136534266
(I215
I300
tp991
S'EMR'
p992
tp993
a(F55.56180736314088
(I167
I300
tp994
S'SEE'
p995
tp996
a(F55.5916666444789
(I106
I300
tp997
S'ROP'
p998
tp999
a(F55.635105811862665
(I15
I300
tp1000
S'APH'
p1001
tp1002
a(F55.73526330534199
(I68
I100
tp1003
S'AKAM'
p1004
tp1005
a(F55.76292559340756
(I56
I500
tp1006
S'PXD'
p1007
tp1008
a(F55.7727185797993
(I94
I300
tp1009
S'M'
p1010
tp1011
a(F55.78498718000232
(I223
I100
tp1012
S'EQT'
p1013
tp1014
a(F55.794086525579445
(I257
I100
tp1015
S'BRK.B'
p1016
tp1017
a(F55.81913730233245
(I118
I100
tp1018
S'WY'
p1019
tp1020
a(F55.89316544561841
(I74
I100
tp1021
S'FLR'
p1022
tp1023
a(F55.939895417414306
(I14
I100
tp1024
S'NRG'
p1025
tp1026
a(F55.96438488417347
(I139
I100
tp1027
S'HON'
p1028
tp1029
a(F56.04713164452525
(I499
I300
tp1030
S'TRV'
p1031
tp1032
a(F56.11264670190613
(I317
I100
tp1033
S'CMS'
p1034
tp1035
a(F56.183433087755304
(I246
I100
tp1036
S'WLTW'
p1037
tp1038
a(F56.20324141511814
(I14
I100
tp1039
S'BSX'
p1040
tp1041
a(F56.219460067186624
(I101
I300
tp1042
S'AAP'
p1043
tp1044
a(F56.25046079575688
(I23
I300
tp1045
S'AMG'
p1046
tp1047
a(F56.27812431842155
(I201
I100
tp1048
S'FOX'
p1049
tp1050
a(F56.297571464076384
(I201
I100
tp1051
S'FOXA'
p1052
tp1053
a(F56.39933876665093
(I214
I500
tp1054
S'SNPS'
p1055
tp1056
a(F56.524563048844044
(I9
I100
tp1057
S'AIV'
p1058
tp1059
a(F56.58632860808032
(I316
I100
tp1060
S'PNW'
p1061
tp1062
a(F56.61082526316259
(I150
I100
tp1063
S'SRCL'
p1064
tp1065
a(F56.7543868251791
(I8
I300
tp1066
S'EIX'
p1067
tp1068
a(F56.80605129198645
(I2
I100
tp1069
S'ZBH'
p1070
tp1071
a(F56.94965223921365
(I63
I300
tp1072
S'EA'
p1073
tp1074
a(F57.06914966743864
(I178
I300
tp1075
S'ROK'
p1076
tp1077
a(F57.18262211141104
(I193
I300
tp1078
S'INTU'
p1079
tp1080
a(F57.229960458095825
(I222
I500
tp1081
S'HCN'
p1082
tp1083
a(F57.32731638719146
(I87
I100
tp1084
S'ORCL'
p1085
tp1086
a(F57.37282703281443
(I290
I100
tp1087
S'APC'
p1088
tp1089
a(F57.38679833790918
(I557
I300
tp1090
S'PCG'
p1091
tp1092
a(F57.42098487698886
(I161
I100
tp1093
S'DLR'
p1094
tp1095
a(F57.44457840684277
(I59
I300
tp1096
S'UNM'
p1097
tp1098
a(F57.45153481361756
(I157
I100
tp1099
S'MA'
p1100
tp1101
a(F57.46736362494575
(I89
I100
tp1102
S'DISCA'
p1103
tp1104
a(F57.61776620859421
(I239
I300
tp1105
S'GD'
p1106
tp1107
a(F57.634162872777694
(I123
I300
tp1108
S'UPS'
p1109
tp1110
a(F57.87466133574837
(I42
I100
tp1111
S'IVZ'
p1112
tp1113
a(F58.104477804155785
(I319
I100
tp1114
S'ED'
p1115
tp1116
a(F58.28973193596618
(I380
I300
tp1117
S'EXC'
p1118
tp1119
a(F58.36222826942318
(I142
I500
tp1120
S'RE'
p1121
tp1122
a(F58.36761664860285
(I1
I100
tp1123
S'LLL'
p1124
tp1125
a(F58.45822497177914
(I60
I100
tp1126
S'FIS'
p1127
tp1128
a(F58.535972383658454
(I285
I100
tp1129
S'ETN'
p1130
tp1131
a(F58.59786256810048
(I100
I100
tp1132
S'AMP'
p1133
tp1134
a(F58.65518925887046
(I107
I500
tp1135
S'EMN'
p1136
tp1137
a(F58.786200336771074
(I129
I100
tp1138
S'AIZ'
p1139
tp1140
a(F58.805259270538684
(I75
I100
tp1141
S'KSU'
p1142
tp1143
a(F58.816632138223724
(I42
I100
tp1144
S'CMG'
p1145
tp1146
a(F58.83115357065639
(I478
I100
tp1147
S'AEP'
p1148
tp1149
a(F58.87745580867217
(I272
I100
tp1150
S'VRSN'
p1151
tp1152
a(F58.9534306932244
(I54
I100
tp1153
S'XEC'
p1154
tp1155
a(F58.97227116827846
(I376
I300
tp1156
S'HRS'
p1157
tp1158
a(F59.04818214528081
(I103
I100
tp1159
S'GPC'
p1160
tp1161
a(F59.12823223864281
(I56
I300
tp1162
S'GOOGL'
p1163
tp1164
a(F59.14959578874334
(I20
I100
tp1165
S'MCO'
p1166
tp1167
a(F59.291050841868916
(I65
I300
tp1168
S'NEE'
p1169
tp1170
a(F59.46241167628307
(I3
I100
tp1171
S'CME'
p1172
tp1173
a(F59.60705306713434
(I58
I100
tp1174
S'CVX'
p1175
tp1176
a(F59.798712105686064
(I93
I100
tp1177
S'AMT'
p1178
tp1179
a(F60.03219545472687
(I124
I100
tp1180
S'ARNC'
p1181
tp1182
a(F60.13690871847545
(I391
I100
tp1183
S'ALL'
p1184
tp1185
a(F60.17389829487526
(I33
I300
tp1186
S'FE'
p1187
tp1188
a(F60.20400078291325
(I63
I100
tp1189
S'EBAY'
p1190
tp1191
a(F60.42032715000182
(I192
I100
tp1192
S'DRE'
p1193
tp1194
a(F60.4228325023257
(I125
I300
tp1195
S'YUM'
p1196
tp1197
a(F60.54300224125885
(I56
I300
tp1198
S'GOOG'
p1199
tp1200
a(F60.59808348657186
(I0
I100
tp1201
S'CF'
p1202
tp1203
a(F60.65801053912966
(I41
I100
tp1204
S'VAR'
p1205
tp1206
a(F60.825766945915284
(I73
I300
tp1207
S'PDCO'
p1208
tp1209
a(F60.9635001109293
(I65
I300
tp1210
S'STX'
p1211
tp1212
a(F61.147426945383934
(I321
I100
tp1213
S'BWA'
p1214
tp1215
a(F61.17175426384683
(I131
I100
tp1216
S'LKQ'
p1217
tp1218
a(F61.35824603145428
(I91
I100
tp1219
S'CBS'
p1220
tp1221
a(F61.459237860138046
(I11
I100
tp1222
S'HST'
p1223
tp1224
a(F61.52111792008454
(I118
I100
tp1225
S'PWR'
p1226
tp1227
a(F61.92676247212209
(I49
I100
tp1228
S'BAX'
p1229
tp1230
a(F61.9512595917397
(I1
I300
tp1231
S'WYN'
p1232
tp1233
a(F62.25050378383844
(I191
I100
tp1234
S'ANTM'
p1235
tp1236
a(F62.32816774334149
(I65
I300
tp1237
S'ACN'
p1238
tp1239
a(F63.3056145219532
(I16
I100
tp1240
S'COL'
p1241
tp1242
a(F63.781055820716425
(I242
I100
tp1243
S'AEE'
p1244
tp1245
a(F63.861585732824835
(I19
I100
tp1246
S'DRI'
p1247
tp1248
a(F64.28441844476555
(I272
I100
tp1249
S'A'
p1250
tp1251
a(F64.55470036493304
(I94
I100
tp1252
S'UAL'
p1253
tp1254
a(F65.2902221505287
(I24
I100
tp1255
S'PFG'
p1256
tp1257
a(F65.56706202476893
(I165
I100
tp1258
S'PRU'
p1259
tp1260
a(F67.32929883590789
(I51
I100
tp1261
S'MET'
p1262
tp1263
a(F67.46522331484374
(I66
I100
tp1264
S'CRM'
p1265
tp1266
a(F67.9314699945693
(I76
I100
tp1267
S'CBG'
p1268
tp1269
a(F69.11927747414488
(I144
I100
tp1270
S'TPR'
p1271
tp1272
a(F69.72318805106987
(I160
I100
tp1273
S'JNPR'
p1274
tp1275
a(F71.61494173916361
(I130
I100
tp1276
S'HIG'
p1277
tp1278
a(F82.35731066780662
(I110
I100
tp1279
S'WU'
p1280
tp1281
a.