(lp0
(cnumpy.core.multiarray
scalar
p1
(cnumpy
dtype
p2
(S'f8'
p3
I0
I1
tp4
Rp5
(I3
S'<'
p6
NNNI-1
I-1
I0
tp7
bS'\xd0A[e\x18\xba2@'
p8
tp9
Rp10
(I160
I500
tp11
S'SMTC'
p12
tp13
a(g1
(g5
S'\xf3\xbb\xa5\xb58\x943@'
p14
tp15
Rp16
(I147
I500
tp17
S'CTS'
p18
tp19
a(g1
(g5
S'\xfb\xea\x18O\xc4A5@'
p20
tp21
Rp22
(I76
I300
tp23
S'CAMP'
p24
tp25
a(g1
(g5
S'\xfb\x14\x1e\xea\xe3-6@'
p26
tp27
Rp28
(I71
I500
tp29
S'COHU'
p30
tp31
a(g1
(g5
S'e\xcf\x8f\xc5|]9@'
p32
tp33
Rp34
(I39
I500
tp35
S'AVD'
p36
tp37
a(g1
(g5
S'9\\\xf4\xa2\x7f\x9a:@'
p38
tp39
Rp40
(I95
I300
tp41
S'QSII'
p42
tp43
a(g1
(g5
S'\xf5L\xa4\xe8\xbd\xe1:@'
p44
tp45
Rp46
(I207
I300
tp47
S'BMI'
p48
tp49
a(g1
(g5
S'T\x86\xc9\xce_\xe8:@'
p50
tp51
Rp52
(I297
I500
tp53
S'EBIX'
p54
tp55
a(g1
(g5
S'\x98\xf6@\x91+B;@'
p56
tp57
Rp58
(I35
I300
tp59
S'ANDE'
p60
tp61
a(g1
(g5
S'\xc5\xc5HbS\xec;@'
p62
tp63
Rp64
(I21
I100
tp65
S'ECPG'
p66
tp67
a(g1
(g5
S'/\xab\x96\xecU\xfa;@'
p68
tp69
Rp70
(I23
I300
tp71
S'SGMS'
p72
tp73
a(g1
(g5
S'\xa3\xeb\x1b\xab\x1d\x10=@'
p74
tp75
Rp76
(I203
I300
tp77
S'LNN'
p78
tp79
a(g1
(g5
S'\\\xa5D\xb8\xf4\xd9>@'
p80
tp81
Rp82
(I237
I500
tp83
S'RAVN'
p84
tp85
a(g1
(g5
S'\xc1\xf0N8\xc5\xf6>@'
p86
tp87
Rp88
(I2
I300
tp89
S'MCF'
p90
tp91
a(g1
(g5
S'\x1cLl\xb1)s?@'
p92
tp93
Rp94
(I207
I300
tp95
S'AZZ'
p96
tp97
a(g1
(g5
S'z\x84>\x0f\x1c\xfa?@'
p98
tp99
Rp100
(I0
I300
tp101
S'KOPN'
p102
tp103
a(g1
(g5
S'"\xd7~\xb9\xc0\n@@'
p104
tp105
Rp106
(I14
I500
tp107
S'PLXS'
p108
tp109
a(g1
(g5
S'8\xf9lO\xd7\x11@@'
p110
tp111
Rp112
(I11
I300
tp113
S'BOFI'
p114
tp115
a(g1
(g5
S'\x1c\x03\xe6\x8c\xa3]@@'
p116
tp117
Rp118
(I277
I500
tp119
S'RGEN'
p120
tp121
a(g1
(g5
S'\x82\xca\x8aIih@@'
p122
tp123
Rp124
(I110
I300
tp125
S'LCI'
p126
tp127
a(g1
(g5
S')\xe6\x11Z\xd3n@@'
p128
tp129
Rp130
(I36
I500
tp131
S'SUP'
p132
tp133
a(g1
(g5
S'\x9f\xb7\xb5\xf5\xbf\x8f@@'
p134
tp135
Rp136
(I118
I500
tp137
S'ATW'
p138
tp139
a(g1
(g5
S'\xc5\x83\xca\xfa\xf2\x9b@@'
p140
tp141
Rp142
(I470
I500
tp143
S'COHR'
p144
tp145
a(g1
(g5
S'\xd6<\x0e/\xfc\xa5@@'
p146
tp147
Rp148
(I67
I300
tp149
S'HSTM'
p150
tp151
a(g1
(g5
S'\x89\xafH\x8a\t\xd7@@'
p152
tp153
Rp154
(I452
I500
tp155
S'PATK'
p156
tp157
a(g1
(g5
S'`#\xbc\x02_\x02A@'
p158
tp159
Rp160
(I120
I300
tp161
S'ANIP'
p162
tp163
a(g1
(g5
S'\xdc\xd8Iy\\&A@'
p164
tp165
Rp166
(I51
I100
tp167
S'NTRI'
p168
tp169
a(g1
(g5
S'\xa2(S;f?A@'
p170
tp171
Rp172
(I398
I500
tp173
S'RGR'
p174
tp175
a(g1
(g5
S'\xad[A\x00G@A@'
p176
tp177
Rp178
(I77
I100
tp179
S'CALM'
p180
tp181
a(g1
(g5
S'|/\xc9\xbf\xc6\x8aA@'
p182
tp183
Rp184
(I171
I300
tp185
S'KLIC'
p186
tp187
a(g1
(g5
S'\xbb\xa8J\x98\x1b\xa4A@'
p188
tp189
Rp190
(I102
I500
tp191
S'WWW'
p192
tp193
a(g1
(g5
S'\xe3\x15d%^\xaeA@'
p194
tp195
Rp196
(I137
I500
tp197
S'VIVO'
p198
tp199
a(g1
(g5
S'\xe4\xbd\xfc\xd2\xa4\xd8A@'
p200
tp201
Rp202
(I145
I500
tp203
S'AFAM'
p204
tp205
a(g1
(g5
S'\xb7(Az5\xddA@'
p206
tp207
Rp208
(I66
I300
tp209
S'MCRI'
p210
tp211
a(g1
(g5
S'\x98BE\xd1x\xf8A@'
p212
tp213
Rp214
(I2
I300
tp215
S'CDI'
p216
tp217
a(g1
(g5
S'i\xe3\xc9\x04\xdc\tB@'
p218
tp219
Rp220
(I243
I300
tp221
S'BCO'
p222
tp223
a(g1
(g5
S'R\x1d$q\xed\x1eB@'
p224
tp225
Rp226
(I125
I500
tp227
S'HA'
p228
tp229
a(g1
(g5
S'5\x02\xe0\x8b\x941B@'
p230
tp231
Rp232
(I83
I300
tp233
S'ASTE'
p234
tp235
a(g1
(g5
S'\xc0\xb31\x90\x9f^B@'
p236
tp237
Rp238
(I59
I300
tp239
S'REX'
p240
tp241
a(g1
(g5
S'~{EU\xa1\x84B@'
p242
tp243
Rp244
(I4
I100
tp245
S'MED'
p246
tp247
a(g1
(g5
S'\xcb}"\xa9b\x98B@'
p248
tp249
Rp250
(I57
I500
tp251
S'MTH'
p252
tp253
a(g1
(g5
S'\xbb>\x0fc\x82\xb2B@'
p254
tp255
Rp256
(I565
I100
tp257
S'ESIO'
p258
tp259
a(g1
(g5
S'\x19\x8e\xc8\x94\xac\xd6B@'
p260
tp261
Rp262
(I16
I100
tp263
S'LPSN'
p264
tp265
a(g1
(g5
S"\x08\xa3p\x91'\xd8B@"
p266
tp267
Rp268
(I209
I100
tp269
S'WWE'
p270
tp271
a(g1
(g5
S'\xf9\xf1\x11:I\x0cC@'
p272
tp273
Rp274
(I1
I300
tp275
S'RLI'
p276
tp277
a(g1
(g5
S'M\x84\xcdpY0C@'
p278
tp279
Rp280
(I60
I500
tp281
S'SAFM'
p282
tp283
a(g1
(g5
S'\x08\xa5\xcf\x0bD3C@'
p284
tp285
Rp286
(I37
I500
tp287
S'NANO'
p288
tp289
a(g1
(g5
S'n\xb3w\xacA\x8bC@'
p290
tp291
Rp292
(I446
I300
tp293
S'HWKN'
p294
tp295
a(g1
(g5
S'\xebk\xaa-Z\xacC@'
p296
tp297
Rp298
(I123
I300
tp299
S'CVBF'
p300
tp301
a(g1
(g5
S'\xcf\xdb\x19\xef\xab\xafC@'
p302
tp303
Rp304
(I6
I100
tp305
S'GEOS'
p306
tp307
a(g1
(g5
S'\xd2\x90\xab/|\xb1C@'
p308
tp309
Rp310
(I237
I500
tp311
S'ACET'
p312
tp313
a(g1
(g5
S'Dy2r\xee\xb2C@'
p314
tp315
Rp316
(I85
I300
tp317
S'GEO'
p318
tp319
a(g1
(g5
S'5\tQ3\x1e\xdcC@'
p320
tp321
Rp322
(I138
I300
tp323
S'IPAR'
p324
tp325
a(g1
(g5
S'\xccH|K\xbc\xe8C@'
p326
tp327
Rp328
(I169
I500
tp329
S'HCSG'
p330
tp331
a(g1
(g5
S'\xbc\xe2\xfc\xdbi\xf8C@'
p332
tp333
Rp334
(I221
I300
tp335
S'TTWO'
p336
tp337
a(g1
(g5
S'\x80(\x0e\xc4\x9a!D@'
p338
tp339
Rp340
(I16
I100
tp341
S'INTL'
p342
tp343
a(g1
(g5
S"\xc5.\xa3\x87'JD@"
p344
tp345
Rp346
(I0
I300
tp347
S'TG'
p348
tp349
a(g1
(g5
S'\x0e\x16i\x8d)ZD@'
p350
tp351
Rp352
(I266
I100
tp353
S'PETS'
p354
tp355
a(g1
(g5
S'\xfb\xc8\x9eO)dD@'
p356
tp357
Rp358
(I33
I300
tp359
S'BGC'
p360
tp361
a(g1
(g5
S'\x86\xf5\x91\xa6\xd1jD@'
p362
tp363
Rp364
(I390
I100
tp365
S'CUB'
p366
tp367
a(g1
(g5
S'\xadK\xa4\x0e_\x80D@'
p368
tp369
Rp370
(I106
I300
tp371
S'AKS'
p372
tp373
a(g1
(g5
S'_k\xac\x0bH\x87D@'
p374
tp375
Rp376
(I69
I500
tp377
S'CMTL'
p378
tp379
a(g1
(g5
S'TH\xe0j\xf0\x96D@'
p380
tp381
Rp382
(I86
I300
tp383
S'WRLD'
p384
tp385
a(g1
(g5
S'\x9a\x05\xd2)\x80\xa7D@'
p386
tp387
Rp388
(I44
I500
tp389
S'BGG'
p390
tp391
a(g1
(g5
S'\x17!Q\x08\xb4\xaaD@'
p392
tp393
Rp394
(I324
I300
tp395
S'OXM'
p396
tp397
a(g1
(g5
S'\x1ej\xdc\x96A\xb2D@'
p398
tp399
Rp400
(I7
I300
tp401
S'CBB'
p402
tp403
a(g1
(g5
S'iI*X\xdb\xb2D@'
p404
tp405
Rp406
(I176
I300
tp407
S'PKE'
p408
tp409
a(g1
(g5
S'\xbb\xcf\x07\xfee\xc1D@'
p410
tp411
Rp412
(I205
I300
tp413
S'B'
p414
tp415
a(g1
(g5
S'K\n\x99:\x97\xc1D@'
p416
tp417
Rp418
(I234
I300
tp419
S'ECOL'
p420
tp421
a(g1
(g5
S'\xed\x9c{\xb4\xcc\xccD@'
p422
tp423
Rp424
(I16
I300
tp425
S'CORE'
p426
tp427
a(g1
(g5
S'\x07\xc5I\xbbG\xcdD@'
p428
tp429
Rp430
(I105
I500
tp431
S'MRTN'
p432
tp433
a(g1
(g5
S'\x8e\x05\x8f\xda;\xcfD@'
p434
tp435
Rp436
(I69
I500
tp437
S'AGYS'
p438
tp439
a(g1
(g5
S'=\xd3\x13\x00\x1b\xdcD@'
p440
tp441
Rp442
(I158
I100
tp443
S'IRBT'
p444
tp445
a(g1
(g5
S'Qc\xc7\x08\xf5\xe2D@'
p446
tp447
Rp448
(I42
I100
tp449
S'VDSI'
p450
tp451
a(g1
(g5
S'\x17L\x83\xd0\x16\x01E@'
p452
tp453
Rp454
(I212
I300
tp455
S'MTSC'
p456
tp457
a(g1
(g5
S'\x9c\x95\x90R\x80\x03E@'
p458
tp459
Rp460
(I86
I500
tp461
S'MKSI'
p462
tp463
a(g1
(g5
S'\xac\xcb\xea\x99\x89\x06E@'
p464
tp465
Rp466
(I122
I300
tp467
S'HMSY'
p468
tp469
a(g1
(g5
S's\xf8\xe5\x0c\xf3\nE@'
p470
tp471
Rp472
(I230
I300
tp473
S'AMAG'
p474
tp475
a(g1
(g5
S'X\xf3\x9e\xfa\xe7\x12E@'
p476
tp477
Rp478
(I260
I300
tp479
S'BRKS'
p480
tp481
a(g1
(g5
S'\xa5\xf8\xab9\xd3\x14E@'
p482
tp483
Rp484
(I118
I500
tp485
S'WABC'
p486
tp487
a(g1
(g5
S'n$\xff%\xda\x14E@'
p488
tp489
Rp490
(I52
I100
tp491
S'CVGW'
p492
tp493
a(g1
(g5
S'\x9a\x80\x06\x933\x17E@'
p494
tp495
Rp496
(I262
I500
tp497
S'DIOD'
p498
tp499
a(g1
(g5
S'\xb4R\xa7:\xea\x17E@'
p500
tp501
Rp502
(I236
I100
tp503
S'CMO'
p504
tp505
a(g1
(g5
S'~\xc9J\x9dc\x18E@'
p506
tp507
Rp508
(I87
I100
tp509
S'IIVI'
p510
tp511
a(g1
(g5
S"\xc4R'Q\xb1&E@"
p512
tp513
Rp514
(I98
I100
tp515
S'DXPE'
p516
tp517
a(g1
(g5
S'L\xb3*\xd3c@E@'
p518
tp519
Rp520
(I134
I300
tp521
S'UVE'
p522
tp523
a(g1
(g5
S'\xa4j8\x0bnIE@'
p524
tp525
Rp526
(I168
I300
tp527
S'DEPO'
p528
tp529
a(g1
(g5
S'J\x01p\x7f\xf0ME@'
p530
tp531
Rp532
(I30
I500
tp533
S'UFI'
p534
tp535
a(g1
(g5
S'\xcb\x1a\xe0,7WE@'
p536
tp537
Rp538
(I260
I500
tp539
S'CHE'
p540
tp541
a(g1
(g5
S'\xb8<^\xff\xee\\E@'
p542
tp543
Rp544
(I245
I300
tp545
S'AEIS'
p546
tp547
a(g1
(g5
S'\xd3x\xdb\xde\xca`E@'
p548
tp549
Rp550
(I224
I500
tp551
S'EXPO'
p552
tp553
a(g1
(g5
S'q\x12\r]\xd6`E@'
p554
tp555
Rp556
(I90
I300
tp557
S'MTRX'
p558
tp559
a(g1
(g5
S'|s,)dhE@'
p560
tp561
Rp562
(I63
I300
tp563
S'AMWD'
p564
tp565
a(g1
(g5
S'>\x8ft/\xd7|E@'
p566
tp567
Rp568
(I15
I100
tp569
S'FORR'
p570
tp571
a(g1
(g5
S'\xe2H^<m\x81E@'
p572
tp573
Rp574
(I75
I300
tp575
S'MMSI'
p576
tp577
a(g1
(g5
S'\x0bz\xc3c\xa4\x86E@'
p578
tp579
Rp580
(I141
I300
tp581
S'MCS'
p582
tp583
a(g1
(g5
S'\x82\x94\xe5g\xdc\x87E@'
p584
tp585
Rp586
(I358
I300
tp587
S'HTLD'
p588
tp589
a(g1
(g5
S'\xf1-\x7f\x83\x86\x9fE@'
p590
tp591
Rp592
(I282
I100
tp593
S'CENX'
p594
tp595
a(g1
(g5
S'y7\xda\xe3\xcc\x9fE@'
p596
tp597
Rp598
(I164
I500
tp599
S'DORM'
p600
tp601
a(g1
(g5
S'\x15CV\x18\r\xa4E@'
p602
tp603
Rp604
(I340
I500
tp605
S'MEI'
p606
tp607
a(g1
(g5
S'\xd3\xe9g\x83s\xb5E@'
p608
tp609
Rp610
(I361
I300
tp611
S'AIT'
p612
tp613
a(g1
(g5
S'\xa8\xcat\x92e\xb6E@'
p614
tp615
Rp616
(I142
I100
tp617
S'TTEC'
p618
tp619
a(g1
(g5
S'\xa55"\x1dh\xd6E@'
p620
tp621
Rp622
(I0
I300
tp623
S'GTY'
p624
tp625
a(g1
(g5
S'\x9c\xc0\xc9\xe0w\xe1E@'
p626
tp627
Rp628
(I141
I300
tp629
S'TTI'
p630
tp631
a(g1
(g5
S'\x07\xd0j\xde\xdd\xf2E@'
p632
tp633
Rp634
(I125
I300
tp635
S'CRR'
p636
tp637
a(g1
(g5
S'P\x7f\xce!\xcb\x07F@'
p638
tp639
Rp640
(I181
I100
tp641
S'DAR'
p642
tp643
a(g1
(g5
S'\x1d+\x81\x90\xf2\x10F@'
p644
tp645
Rp646
(I37
I300
tp647
S'TVTY'
p648
tp649
a(g1
(g5
S'[\xcd\x07\xaa\x95\x13F@'
p650
tp651
Rp652
(I35
I300
tp653
S'CENTA'
p654
tp655
a(g1
(g5
S'\xed>\xb9\x10^\x16F@'
p656
tp657
Rp658
(I10
I300
tp659
S'CEVA'
p660
tp661
a(g1
(g5
S';\xfa\xcb0 \x1aF@'
p662
tp663
Rp664
(I80
I500
tp665
S'STMP'
p666
tp667
a(g1
(g5
S'P\xae\xc3\xae\xba\x1bF@'
p668
tp669
Rp670
(I15
I300
tp671
S'HIBB'
p672
tp673
a(g1
(g5
S'V\x9b/sJ\x1dF@'
p674
tp675
Rp676
(I9
I300
tp677
S'MHO'
p678
tp679
a(g1
(g5
S'-H\xdc6~%F@'
p680
tp681
Rp682
(I322
I100
tp683
S'STC'
p684
tp685
a(g1
(g5
S'\xa4W\x96.",F@'
p686
tp687
Rp688
(I44
I300
tp689
S'FBNC'
p690
tp691
a(g1
(g5
S'M\xfa\xa9\xc9\x98-F@'
p692
tp693
Rp694
(I136
I100
tp695
S'ANIK'
p696
tp697
a(g1
(g5
S'(\xd1\xfe852F@'
p698
tp699
Rp700
(I215
I300
tp701
S'ABM'
p702
tp703
a(g1
(g5
S'@\xab\x0f\xa5\xaa8F@'
p704
tp705
Rp706
(I225
I300
tp707
S'PZZA'
p708
tp709
a(g1
(g5
S'p\xf0a\xbb\x009F@'
p710
tp711
Rp712
(I208
I300
tp713
S'APOG'
p714
tp715
a(g1
(g5
S'i\xec\xc7Xk=F@'
p716
tp717
Rp718
(I52
I300
tp719
S'OFG'
p720
tp721
a(g1
(g5
S'\x90y\x81~\xa8>F@'
p722
tp723
Rp724
(I7
I300
tp725
S'ALE'
p726
tp727
a(g1
(g5
S'y\x08\x1f\x13\xdd@F@'
p728
tp729
Rp730
(I57
I300
tp731
S'BYD'
p732
tp733
a(g1
(g5
S'\x9d\xf1\xf0\x1b\xcbIF@'
p734
tp735
Rp736
(I129
I300
tp737
S'EZPW'
p738
tp739
a(g1
(g5
S'P\xc2\xda\x95\x9a_F@'
p740
tp741
Rp742
(I15
I100
tp743
S'CKH'
p744
tp745
a(g1
(g5
S'?\x81\xbd\x89*hF@'
p746
tp747
Rp748
(I18
I500
tp749
S'FCFS'
p750
tp751
a(g1
(g5
S'\xcb\xf7G\xcd5\x80F@'
p752
tp753
Rp754
(I179
I300
tp755
S'CBT'
p756
tp757
a(g1
(g5
S'\xe3\xda\xca\x80q\x98F@'
p758
tp759
Rp760
(I387
I300
tp761
S'TNC'
p762
tp763
a(g1
(g5
S'\x83Z\x16\xda\x12\xa6F@'
p764
tp765
Rp766
(I87
I300
tp767
S'SHOO'
p768
tp769
a(g1
(g5
S'(\x1f\xf5\x96\xa7\xa7F@'
p770
tp771
Rp772
(I47
I300
tp773
S'GES'
p774
tp775
a(g1
(g5
S'\xe7\xd6\x99D>\xb4F@'
p776
tp777
Rp778
(I52
I100
tp779
S'VIAV'
p780
tp781
a(g1
(g5
S'\xab\x08 8\xb3\xbdF@'
p782
tp783
Rp784
(I50
I500
tp785
S'ATU'
p786
tp787
a(g1
(g5
S'f\xd1\xfc\x04#\xd0F@'
p788
tp789
Rp790
(I131
I100
tp791
S'ZEUS'
p792
tp793
a(g1
(g5
S'H1\x16\xafI\xd3F@'
p794
tp795
Rp796
(I34
I300
tp797
S'FRED'
p798
tp799
a(g1
(g5
S'\xfaq\xfcg*\xdaF@'
p800
tp801
Rp802
(I1
I500
tp803
S'AMN'
p804
tp805
a(g1
(g5
S'\xb9\x1d\x16\x18Q\xe5F@'
p806
tp807
Rp808
(I61
I100
tp809
S'FARO'
p810
tp811
a(g1
(g5
S'\x11\x9c\x9e\xc7\xa2\xecF@'
p812
tp813
Rp814
(I18
I100
tp815
S'XOXO'
p816
tp817
a(g1
(g5
S'f\x9b\x13\x121\xedF@'
p818
tp819
Rp820
(I279
I300
tp821
S'CENT'
p822
tp823
a(g1
(g5
S'\x8a\x9b9\xf7t\xf2F@'
p824
tp825
Rp826
(I416
I300
tp827
S'SKYW'
p828
tp829
a(g1
(g5
S'Ze\xea!_\x0cG@'
p830
tp831
Rp832
(I258
I500
tp833
S'CBM'
p834
tp835
a(g1
(g5
S'\x88\x153\x8f8\x10G@'
p836
tp837
Rp838
(I161
I300
tp839
S'ICON'
p840
tp841
a(g1
(g5
S'\x80\xd6HR\xd3\x1aG@'
p842
tp843
Rp844
(I27
I100
tp845
S'AMED'
p846
tp847
a(g1
(g5
S'\x85\x15S\x0e\xce\x1eG@'
p848
tp849
Rp850
(I161
I100
tp851
S'ITRI'
p852
tp853
a(g1
(g5
S'\xebt\xe7d\x99%G@'
p854
tp855
Rp856
(I505
I300
tp857
S'AWR'
p858
tp859
a(g1
(g5
S'\tu\xf9\xb14*G@'
p860
tp861
Rp862
(I202
I100
tp863
S'LABL'
p864
tp865
a(g1
(g5
S'\x98\xb3\xe0F|0G@'
p866
tp867
Rp868
(I210
I100
tp869
S'UEIC'
p870
tp871
a(g1
(g5
S'\xa2\xb8[\x1cA3G@'
p872
tp873
Rp874
(I18
I100
tp875
S'CNMD'
p876
tp877
a(g1
(g5
S'\x1a\x10\xa2\xa8wAG@'
p878
tp879
Rp880
(I64
I300
tp881
S'LDL'
p882
tp883
a(g1
(g5
S't\xc7\x0b\\"JG@'
p884
tp885
Rp886
(I1
I300
tp887
S'GLT'
p888
tp889
a(g1
(g5
S'0R1\xf7\xfcdG@'
p890
tp891
Rp892
(I3
I500
tp893
S'AKR'
p894
tp895
a(g1
(g5
S'\xed\x94_\xba^mG@'
p896
tp897
Rp898
(I97
I100
tp899
S'CRZO'
p900
tp901
a(g1
(g5
S'\xd6;\x0bA\xe4\x87G@'
p902
tp903
Rp904
(I33
I300
tp905
S'ICUI'
p906
tp907
a(g1
(g5
S'\xba!*\x08<\x88G@'
p908
tp909
Rp910
(I161
I300
tp911
S'GIII'
p912
tp913
a(g1
(g5
S'\xd5\x89<FZ\x8aG@'
p914
tp915
Rp916
(I265
I300
tp917
S'AAON'
p918
tp919
a(g1
(g5
S'8\xcb\xe4S\xe9\x8bG@'
p920
tp921
Rp922
(I163
I300
tp923
S'MOG.A'
p924
tp925
a(g1
(g5
S'r\xd8\xf3\x07p\x9aG@'
p926
tp927
Rp928
(I19
I300
tp929
S'GBCI'
p930
tp931
a(g1
(g5
S'q\xbb\xf4uT\x9cG@'
p932
tp933
Rp934
(I393
I100
tp935
S'FCF'
p936
tp937
a(g1
(g5
S'\x89\xab\xf3\xb3\xf2\xa5G@'
p938
tp939
Rp940
(I4
I300
tp941
S'SR'
p942
tp943
a(g1
(g5
S'\xe42\xb5\xb3>\xaeG@'
p944
tp945
Rp946
(I7
I300
tp947
S'KELYA'
p948
tp949
a(g1
(g5
S'\xc0\xa0\x99\xbd\x96\xb8G@'
p950
tp951
Rp952
(I68
I300
tp953
S'INDB'
p954
tp955
a(g1
(g5
S'\x8c\x1a\x94\xc0\x96\xc0G@'
p956
tp957
Rp958
(I502
I100
tp959
S'SCL'
p960
tp961
a(g1
(g5
S'\xe0Z\xa7\x1dP\xc5G@'
p962
tp963
Rp964
(I20
I100
tp965
S'BBOX'
p966
tp967
a(g1
(g5
S'\xb8AU\x9d\x9b\xd5G@'
p968
tp969
Rp970
(I143
I100
tp971
S'AVAV'
p972
tp973
a(g1
(g5
S'\x04\x0b\xa7\x06\x8f\xd6G@'
p974
tp975
Rp976
(I91
I300
tp977
S'NSP'
p978
tp979
a(g1
(g5
S't\x1d\x8e\xd6\x7f\xdaG@'
p980
tp981
Rp982
(I423
I500
tp983
S'ROG'
p984
tp985
a(g1
(g5
S':\x7f\xb5tj\xe0G@'
p986
tp987
Rp988
(I333
I500
tp989
S'NPK'
p990
tp991
a(g1
(g5
S'\xfa\xa2C\x95\xae\xe3G@'
p992
tp993
Rp994
(I157
I100
tp995
S'THRM'
p996
tp997
a(g1
(g5
S'\xe0\x1b+\xa8&\xeaG@'
p998
tp999
Rp1000
(I106
I300
tp1001
S'SWM'
p1002
tp1003
a(g1
(g5
S'~w2jR\xf5G@'
p1004
tp1005
Rp1006
(I403
I300
tp1007
S'TMP'
p1008
tp1009
a(g1
(g5
S'\x90z\x0b\xb6\xa4\xfeG@'
p1010
tp1011
Rp1012
(I9
I300
tp1013
S'ALGT'
p1014
tp1015
a(g1
(g5
S'9\xa2\xacaM\xffG@'
p1016
tp1017
Rp1018
(I180
I100
tp1019
S'FELE'
p1020
tp1021
a(g1
(g5
S'\xa1\x06\xa7\x9e\x8a\x0cH@'
p1022
tp1023
Rp1024
(I241
I300
tp1025
S'BRC'
p1026
tp1027
a(g1
(g5
S'\x8c\xb8L\x98\xaf\x11H@'
p1028
tp1029
Rp1030
(I190
I500
tp1031
S'WGO'
p1032
tp1033
a(g1
(g5
S'=|\xe2\xe6\x16\x1bH@'
p1034
tp1035
Rp1036
(I41
I100
tp1037
S'RGS'
p1038
tp1039
a(g1
(g5
S'\xba\xebS\xf2\x13 H@'
p1040
tp1041
Rp1042
(I81
I100
tp1043
S'EHTH'
p1044
tp1045
a(g1
(g5
S'\xd3\x8cfK\xfc!H@'
p1046
tp1047
Rp1048
(I83
I100
tp1049
S'BHE'
p1050
tp1051
a(g1
(g5
S'\xb6\x08\x87\x8d\xf1*H@'
p1052
tp1053
Rp1054
(I24
I100
tp1055
S'BKE'
p1056
tp1057
a(g1
(g5
S'\x04%\x07\xe2\xa81H@'
p1058
tp1059
Rp1060
(I45
I100
tp1061
S'HVT'
p1062
tp1063
a(g1
(g5
S'\x1b\x08P2\xeb9H@'
p1064
tp1065
Rp1066
(I75
I300
tp1067
S'UFPI'
p1068
tp1069
a(g1
(g5
S'-yi\x98N<H@'
p1070
tp1071
Rp1072
(I31
I300
tp1073
S'ADC'
p1074
tp1075
a(g1
(g5
S'\xf8\x0f\x8c\xd1\xbc@H@'
p1076
tp1077
Rp1078
(I80
I500
tp1079
S'PLUS'
p1080
tp1081
a(g1
(g5
S'\xe0\x9b\xe4\x92\x9eEH@'
p1082
tp1083
Rp1084
(I40
I300
tp1085
S'CRVL'
p1086
tp1087
a(g1
(g5
S'm\xa8\xdb\xb4\x89LH@'
p1088
tp1089
Rp1090
(I244
I300
tp1091
S'PRA'
p1092
tp1093
a(g1
(g5
S'\xab\x89`\xebIXH@'
p1094
tp1095
Rp1096
(I215
I300
tp1097
S'LCII'
p1098
tp1099
a(g1
(g5
S'q\xee\x9d_\x89XH@'
p1100
tp1101
Rp1102
(I7
I500
tp1103
S'FSS'
p1104
tp1105
a(g1
(g5
S'[\xe5\xb5\xae@`H@'
p1106
tp1107
Rp1108
(I185
I300
tp1109
S'UNT'
p1110
tp1111
a(g1
(g5
S'E;9\xd4\x98bH@'
p1112
tp1113
Rp1114
(I148
I300
tp1115
S'SBSI'
p1116
tp1117
a(g1
(g5
S'}\xbd\xb4\x8a\xd5gH@'
p1118
tp1119
Rp1120
(I11
I300
tp1121
S'HLX'
p1122
tp1123
a(g1
(g5
S'\xf6\xe4v0(sH@'
p1124
tp1125
Rp1126
(I185
I500
tp1127
S'AXE'
p1128
tp1129
a(g1
(g5
S'\x00\xa9D\xdd\x14|H@'
p1130
tp1131
Rp1132
(I54
I100
tp1133
S'CECO'
p1134
tp1135
a(g1
(g5
S'\x88\x00\x8b\xef\x8f\x87H@'
p1136
tp1137
Rp1138
(I136
I500
tp1139
S'MDC'
p1140
tp1141
a(g1
(g5
S'\xe08LZ\x1a\x9eH@'
p1142
tp1143
Rp1144
(I206
I300
tp1145
S'MRCY'
p1146
tp1147
a(g1
(g5
S'\xf5{z|\xc7\xa8H@'
p1148
tp1149
Rp1150
(I49
I100
tp1151
S'LZB'
p1152
tp1153
a(g1
(g5
S'\xad\xb4k\xd9\x8d\xaaH@'
p1154
tp1155
Rp1156
(I6
I300
tp1157
S'CRY'
p1158
tp1159
a(g1
(g5
S'it\x92\xc2V\xafH@'
p1160
tp1161
Rp1162
(I307
I100
tp1163
S'FFIN'
p1164
tp1165
a(g1
(g5
S'X\nK\x8a\x81\xb6H@'
p1166
tp1167
Rp1168
(I57
I100
tp1169
S'NKTR'
p1170
tp1171
a(g1
(g5
S'v\xb1\xb1\xc3\xa1\xbcH@'
p1172
tp1173
Rp1174
(I191
I300
tp1175
S'BRKL'
p1176
tp1177
a(g1
(g5
S'\xe4\xec\xc4\xe0`\xc5H@'
p1178
tp1179
Rp1180
(I61
I100
tp1181
S'DSPG'
p1182
tp1183
a(g1
(g5
S"\x0e'\xc0\x04\xc7\xe8H@"
p1184
tp1185
Rp1186
(I152
I300
tp1187
S'ESND'
p1188
tp1189
a(g1
(g5
S'\x85Ah]Q\xedH@'
p1190
tp1191
Rp1192
(I56
I100
tp1193
S'SCSC'
p1194
tp1195
a(g1
(g5
S'\xf7\xb3\x966I\xf8H@'
p1196
tp1197
Rp1198
(I205
I100
tp1199
S'NLS'
p1200
tp1201
a(g1
(g5
S'\xa1<\xd2\xed\xd0\xfdH@'
p1202
tp1203
Rp1204
(I92
I500
tp1205
S'LAD'
p1206
tp1207
a(g1
(g5
S'\xae\x92\x80i\x0b\x02I@'
p1208
tp1209
Rp1210
(I404
I300
tp1211
S'SFNC'
p1212
tp1213
a(g1
(g5
S'\xdf\xb5\xb4\x17\xbc\x03I@'
p1214
tp1215
Rp1216
(I145
I300
tp1217
S'EGHT'
p1218
tp1219
a(g1
(g5
S'\xd2\x9a\xcb\xf0\xdd\x10I@'
p1220
tp1221
Rp1222
(I52
I300
tp1223
S'MYE'
p1224
tp1225
a(g1
(g5
S'\xf9\xe8\xb9tq\x12I@'
p1226
tp1227
Rp1228
(I300
I300
tp1229
S'NBTB'
p1230
tp1231
a(g1
(g5
S'do\xdd\xbe\xc5\x15I@'
p1232
tp1233
Rp1234
(I555
I300
tp1235
S'SJI'
p1236
tp1237
a(g1
(g5
S'f\xd8?\xd0y\x16I@'
p1238
tp1239
Rp1240
(I269
I300
tp1241
S'ROCK'
p1242
tp1243
a(g1
(g5
S'\x04\xb4\xc0\xd2\x81&I@'
p1244
tp1245
Rp1246
(I33
I100
tp1247
S'SCSS'
p1248
tp1249
a(g1
(g5
S'\xd3\x9a\x8b\xa9\xbe*I@'
p1250
tp1251
Rp1252
(I79
I100
tp1253
S'PGTI'
p1254
tp1255
a(g1
(g5
S'\xf0#\xfe\x1a\xeb=I@'
p1256
tp1257
Rp1258
(I3
I100
tp1259
S'RMBS'
p1260
tp1261
a(g1
(g5
S"'\xbf\xf3\xea\xc9>I@"
p1262
tp1263
Rp1264
(I373
I300
tp1265
S'GNCMA'
p1266
tp1267
a(g1
(g5
S'\xa3\x08\xc7[7AI@'
p1268
tp1269
Rp1270
(I569
I300
tp1271
S'VVI'
p1272
tp1273
a(g1
(g5
S'{Z)8FQI@'
p1274
tp1275
Rp1276
(I330
I100
tp1277
S'SPPI'
p1278
tp1279
a(g1
(g5
S'\xc2-K\xe7RRI@'
p1280
tp1281
Rp1282
(I288
I100
tp1283
S'LGND'
p1284
tp1285
a(g1
(g5
S'\x9e\xf8\xc9TQ\\I@'
p1286
tp1287
Rp1288
(I325
I300
tp1289
S'UHT'
p1290
tp1291
a(g1
(g5
S'\xea\x9c\xc7Av\\I@'
p1292
tp1293
Rp1294
(I6
I300
tp1295
S'CWT'
p1296
tp1297
a(g1
(g5
S's\xbb_\x1brjI@'
p1298
tp1299
Rp1300
(I111
I300
tp1301
S'ATNI'
p1302
tp1303
a(g1
(g5
S'\xdb,\xea\xbf4kI@'
p1304
tp1305
Rp1306
(I27
I300
tp1307
S'SHLM'
p1308
tp1309
a(g1
(g5
S':\x1a\xaa\xfeVrI@'
p1310
tp1311
Rp1312
(I6
I100
tp1313
S'EFII'
p1314
tp1315
a(g1
(g5
S'\xe0\xf6i\xe9srI@'
p1316
tp1317
Rp1318
(I5
I100
tp1319
S'ALOG'
p1320
tp1321
a(g1
(g5
S'0\xac\x8f\xb4\xec{I@'
p1322
tp1323
Rp1324
(I44
I300
tp1325
S'SSD'
p1326
tp1327
a(g1
(g5
S':\xf4L\x1f\x90|I@'
p1328
tp1329
Rp1330
(I23
I300
tp1331
S'HSC'
p1332
tp1333
a(g1
(g5
S'+,**e\x82I@'
p1334
tp1335
Rp1336
(I46
I100
tp1337
S'CAL'
p1338
tp1339
a(g1
(g5
S'\xa0s \xe6\xba\x8cI@'
p1340
tp1341
Rp1342
(I154
I100
tp1343
S'STRA'
p1344
tp1345
a(g1
(g5
S'T\xa0O\xa3t\x8eI@'
p1346
tp1347
Rp1348
(I28
I100
tp1349
S'ETH'
p1350
tp1351
a(g1
(g5
S'g\xd3\xffJ\xaa\x95I@'
p1352
tp1353
Rp1354
(I83
I100
tp1355
S'HOMB'
p1356
tp1357
a(g1
(g5
S'h\x96p\x00`\x97I@'
p1358
tp1359
Rp1360
(I237
I500
tp1361
S'PEI'
p1362
tp1363
a(g1
(g5
S'\xe7\xb5rO\x9e\x97I@'
p1364
tp1365
Rp1366
(I74
I300
tp1367
S'ABAX'
p1368
tp1369
a(g1
(g5
S'\rc\xe3%\x9a\x9eI@'
p1370
tp1371
Rp1372
(I163
I100
tp1373
S'WIRE'
p1374
tp1375
a(g1
(g5
S'\x8c\xc3P\xa8\x18\xa6I@'
p1376
tp1377
Rp1378
(I480
I100
tp1379
S'NWN'
p1380
tp1381
a(g1
(g5
S'z(\x1dx\xd6\xacI@'
p1382
tp1383
Rp1384
(I55
I300
tp1385
S'HUBG'
p1386
tp1387
a(g1
(g5
S'F\xc2f\xc4\xb1\xb0I@'
p1388
tp1389
Rp1390
(I40
I100
tp1391
S'SPTN'
p1392
tp1393
a(g1
(g5
S"'B\xb9\xfc5\xb4I@"
p1394
tp1395
Rp1396
(I146
I100
tp1397
S'SAIA'
p1398
tp1399
a(g1
(g5
S'\xf2/\xfa\xb7\xe2\xc1I@'
p1400
tp1401
Rp1402
(I62
I100
tp1403
S'LQDT'
p1404
tp1405
a(g1
(g5
S'z\xb2#\xc2\xc3\xc5I@'
p1406
tp1407
Rp1408
(I82
I100
tp1409
S'AROC'
p1410
tp1411
a(g1
(g5
S'\xb8\xecr\x90Q\xc6I@'
p1412
tp1413
Rp1414
(I510
I100
tp1415
S'CBU'
p1416
tp1417
a(g1
(g5
S'\x06\x8cn^\xf7\xdcI@'
p1418
tp1419
Rp1420
(I156
I100
tp1421
S'LXU'
p1422
tp1423
a(g1
(g5
S'\xd3~b\x00j\xe0I@'
p1424
tp1425
Rp1426
(I42
I100
tp1427
S'BCPC'
p1428
tp1429
a(g1
(g5
S'\x11\x01xE\x07\xe1I@'
p1430
tp1431
Rp1432
(I176
I100
tp1433
S'DAKT'
p1434
tp1435
a(g1
(g5
S'\x8d\x86\xbc\xaa\xb8\xf0I@'
p1436
tp1437
Rp1438
(I20
I500
tp1439
S'ESE'
p1440
tp1441
a(g1
(g5
S't\x1c\xf3\x95f\xf5I@'
p1442
tp1443
Rp1444
(I309
I100
tp1445
S'GBX'
p1446
tp1447
a(g1
(g5
S'\x80\x86!{\xf0\xffI@'
p1448
tp1449
Rp1450
(I209
I300
tp1451
S'TDW'
p1452
tp1453
a(g1
(g5
S'F\xd5x\xa6#\x04J@'
p1454
tp1455
Rp1456
(I466
I100
tp1457
S'AVA'
p1458
tp1459
a(g1
(g5
S'\x9f\xe3\xa6\xfc\x07 J@'
p1460
tp1461
Rp1462
(I118
I300
tp1463
S'OSIS'
p1464
tp1465
a(g1
(g5
S'\x16U\x80B\xa1/J@'
p1466
tp1467
Rp1468
(I103
I100
tp1469
S'GPRE'
p1470
tp1471
a(g1
(g5
S'\xe8\x88\x9e\x8c\x85:J@'
p1472
tp1473
Rp1474
(I258
I100
tp1475
S'SSP'
p1476
tp1477
a(g1
(g5
S'U)\xba\xe3\xc1FJ@'
p1478
tp1479
Rp1480
(I48
I300
tp1481
S'PRAA'
p1482
tp1483
a(g1
(g5
S'\xe38\xd8\x91\xaf[J@'
p1484
tp1485
Rp1486
(I122
I300
tp1487
S'UVV'
p1488
tp1489
a(g1
(g5
S'\xc2\xf5,\x18\xaccJ@'
p1490
tp1491
Rp1492
(I6
I100
tp1493
S'UBA'
p1494
tp1495
a(g1
(g5
S'\xb9 \xdb\xa3vdJ@'
p1496
tp1497
Rp1498
(I355
I300
tp1499
S'SIGI'
p1500
tp1501
a(g1
(g5
S'\xf3\xc1\xc0\x9alfJ@'
p1502
tp1503
Rp1504
(I400
I500
tp1505
S'KWR'
p1506
tp1507
a(g1
(g5
S'&\xd2\xe5o\xf6iJ@'
p1508
tp1509
Rp1510
(I86
I300
tp1511
S'ABG'
p1512
tp1513
a(g1
(g5
S'\x89*\xcc\x9e\xa9lJ@'
p1514
tp1515
Rp1516
(I193
I300
tp1517
S'FIX'
p1518
tp1519
a(g1
(g5
S'\xf3\xb1G\x10\xaenJ@'
p1520
tp1521
Rp1522
(I43
I300
tp1523
S'TCBI'
p1524
tp1525
a(g1
(g5
S'\xc0t+\xd8\xeboJ@'
p1526
tp1527
Rp1528
(I50
I100
tp1529
S'SMP'
p1530
tp1531
a(g1
(g5
S'\x82\x08t\x16\x0bvJ@'
p1532
tp1533
Rp1534
(I68
I300
tp1535
S'TREX'
p1536
tp1537
a(g1
(g5
S'\x8c\xa9\x100\xfe{J@'
p1538
tp1539
Rp1540
(I158
I100
tp1541
S'LTC'
p1542
tp1543
a(g1
(g5
S'\x1d\x96\xc6\x16\xd3\x7fJ@'
p1544
tp1545
Rp1546
(I446
I500
tp1547
S'WDFC'
p1548
tp1549
a(g1
(g5
S'\x9f\xf4\xf0\xb1\xce\x84J@'
p1550
tp1551
Rp1552
(I0
I300
tp1553
S'BPFH'
p1554
tp1555
a(g1
(g5
S'qAj\xaf~\x99J@'
p1556
tp1557
Rp1558
(I159
I100
tp1559
S'BRS'
p1560
tp1561
a(g1
(g5
S'\\\xc3H\xd0\xdd\xa7J@'
p1562
tp1563
Rp1564
(I144
I300
tp1565
S'SXI'
p1566
tp1567
a(g1
(g5
S'\xab\xa5\xdd\xff\xdb\xb0J@'
p1568
tp1569
Rp1570
(I316
I100
tp1571
S'UMBF'
p1572
tp1573
a(g1
(g5
S'\x1c!P\xad\x90\xb8J@'
p1574
tp1575
Rp1576
(I222
I300
tp1577
S'MNRO'
p1578
tp1579
a(g1
(g5
S'\xde\xe73\x99\x1c\xbbJ@'
p1580
tp1581
Rp1582
(I28
I100
tp1583
S'MTRN'
p1584
tp1585
a(g1
(g5
S'\xe4\xe8s\x99\x82\xbbJ@'
p1586
tp1587
Rp1588
(I18
I300
tp1589
S'CMD'
p1590
tp1591
a(g1
(g5
S'H\x81\x0c\x90\xd4\xc7J@'
p1592
tp1593
Rp1594
(I345
I100
tp1595
S'HMN'
p1596
tp1597
a(g1
(g5
S';\x18M]C\xc8J@'
p1598
tp1599
Rp1600
(I103
I100
tp1601
S'AIR'
p1602
tp1603
a(g1
(g5
S'\x88&\x8a\xf2[\xcaJ@'
p1604
tp1605
Rp1606
(I221
I100
tp1607
S'CPF'
p1608
tp1609
a(g1
(g5
S'\x82\xdf\xc6\x87^\xd9J@'
p1610
tp1611
Rp1612
(I162
I100
tp1613
S'NEOG'
p1614
tp1615
a(g1
(g5
S'\x91\x9d\xc1\xe6\xc2\xdeJ@'
p1616
tp1617
Rp1618
(I1
I300
tp1619
S'HF'
p1620
tp1621
a(g1
(g5
S'\xb0\x8e\xdd\xe7m\xe5J@'
p1622
tp1623
Rp1624
(I2
I300
tp1625
S'IVC'
p1626
tp1627
a(g1
(g5
S'p\x03.\xac\xa2\xe7J@'
p1628
tp1629
Rp1630
(I84
I100
tp1631
S'SANM'
p1632
tp1633
a(g1
(g5
S'\x97\x1c\xac\x19X\xeaJ@'
p1634
tp1635
Rp1636
(I3
I100
tp1637
S'POWL'
p1638
tp1639
a(g1
(g5
S'\x8f\xab\x9el\xeb\xebJ@'
p1640
tp1641
Rp1642
(I297
I100
tp1643
S'GFF'
p1644
tp1645
a(g1
(g5
S'P\xf4\x01q\xde\xf2J@'
p1646
tp1647
Rp1648
(I358
I300
tp1649
S'JJSF'
p1650
tp1651
a(g1
(g5
S'W\xcd\xf5\xc5[\xf7J@'
p1652
tp1653
Rp1654
(I48
I300
tp1655
S'ABCB'
p1656
tp1657
a(g1
(g5
S'|\n#\x11\xad\xfeJ@'
p1658
tp1659
Rp1660
(I317
I300
tp1661
S'TTEK'
p1662
tp1663
a(g1
(g5
S'i\x06\x1d\xd0\x87\x00K@'
p1664
tp1665
Rp1666
(I2
I300
tp1667
S'AMSF'
p1668
tp1669
a(g1
(g5
S'YY\xad\xe1\x9f\x01K@'
p1670
tp1671
Rp1672
(I135
I100
tp1673
S'UBSI'
p1674
tp1675
a(g1
(g5
S'w\x85\x91\xe2f\x0bK@'
p1676
tp1677
Rp1678
(I401
I300
tp1679
S'NAVG'
p1680
tp1681
a(g1
(g5
S'\x11\xe84\xbe\xd0\x16K@'
p1682
tp1683
Rp1684
(I209
I100
tp1685
S'PRFT'
p1686
tp1687
a(g1
(g5
S'\ths\x8f*\x1fK@'
p1688
tp1689
Rp1690
(I16
I300
tp1691
S'IOSP'
p1692
tp1693
a(g1
(g5
S'\xa7\x92\x9e\xcd\x01 K@'
p1694
tp1695
Rp1696
(I405
I300
tp1697
S'UNF'
p1698
tp1699
a(g1
(g5
S'\x07E"\r%$K@'
p1700
tp1701
Rp1702
(I125
I300
tp1703
S'FMBI'
p1704
tp1705
a(g1
(g5
S'\xd8=0\x8c\xc8)K@'
p1706
tp1707
Rp1708
(I107
I300
tp1709
S'EGOV'
p1710
tp1711
a(g1
(g5
S'K\xfa\xaf\xbd\x1b9K@'
p1712
tp1713
Rp1714
(I27
I300
tp1715
S'FUL'
p1716
tp1717
a(g1
(g5
S'?\xb3\xc9\x1dO9K@'
p1718
tp1719
Rp1720
(I174
I300
tp1721
S'RTEC'
p1722
tp1723
a(g1
(g5
S'>w\xc6\xb0}IK@'
p1724
tp1725
Rp1726
(I318
I100
tp1727
S'MLI'
p1728
tp1729
a(g1
(g5
S'\xfa\x08\xbc\xf2\xc3KK@'
p1730
tp1731
Rp1732
(I231
I300
tp1733
S'ALG'
p1734
tp1735
a(g1
(g5
S'\x0fb\xe0\xae0PK@'
p1736
tp1737
Rp1738
(I213
I300
tp1739
S'PLCE'
p1740
tp1741
a(g1
(g5
S'\xf5\x83M\xad\x85jK@'
p1742
tp1743
Rp1744
(I8
I300
tp1745
S'CIR'
p1746
tp1747
a(g1
(g5
S'\x13\xa8\xdf\x05ZnK@'
p1748
tp1749
Rp1750
(I56
I100
tp1751
S'COLB'
p1752
tp1753
a(g1
(g5
S'd\xfb\xbd\n\x9c\x8eK@'
p1754
tp1755
Rp1756
(I55
I300
tp1757
S'SONC'
p1758
tp1759
a(g1
(g5
S'O\xde\t\xad\x9a\x90K@'
p1760
tp1761
Rp1762
(I56
I300
tp1763
S'BLKB'
p1764
tp1765
a(g1
(g5
S'\xdd\xb8QJ\xf9\x94K@'
p1766
tp1767
Rp1768
(I114
I100
tp1769
S'TESO'
p1770
tp1771
a(g1
(g5
S'j\xfb\xfb\xafK\x9cK@'
p1772
tp1773
Rp1774
(I44
I100
tp1775
S'DCOM'
p1776
tp1777
a(g1
(g5
S'\xbc\x96Lum\x9fK@'
p1778
tp1779
Rp1780
(I10
I100
tp1781
S'PNFP'
p1782
tp1783
a(g1
(g5
S'Tq\xb7\x8fJ\xa0K@'
p1784
tp1785
Rp1786
(I193
I100
tp1787
S'UFCS'
p1788
tp1789
a(g1
(g5
S')DB\x87M\xaeK@'
p1790
tp1791
Rp1792
(I0
I300
tp1793
S'CRAY'
p1794
tp1795
a(g1
(g5
S'\xe7\xa1\xe0\x01\xbc\xeaK@'
p1796
tp1797
Rp1798
(I212
I300
tp1799
S'EGP'
p1800
tp1801
a(g1
(g5
S'0\x9a\x8c\xbbZ\xebK@'
p1802
tp1803
Rp1804
(I212
I100
tp1805
S'TUES'
p1806
tp1807
a(g1
(g5
S'\xba\xbe2\xca\xd7\xefK@'
p1808
tp1809
Rp1810
(I199
I100
tp1811
S'PERY'
p1812
tp1813
a(g1
(g5
S'\xcfg\xe5\x1f,\xf6K@'
p1814
tp1815
Rp1816
(I11
I300
tp1817
S'BFS'
p1818
tp1819
a(g1
(g5
S'\xd4\x07\xf7\x17\xb5\xf9K@'
p1820
tp1821
Rp1822
(I235
I300
tp1823
S'CCC'
p1824
tp1825
a(g1
(g5
S'\xb9\x1e\xb4f=\x05L@'
p1826
tp1827
Rp1828
(I90
I100
tp1829
S'ONB'
p1830
tp1831
a(g1
(g5
S'\x12\\\x1f\xb6\x11/L@'
p1832
tp1833
Rp1834
(I107
I100
tp1835
S'ANF'
p1836
tp1837
a(g1
(g5
S'\xbc\xe8\\\x1a=<L@'
p1838
tp1839
Rp1840
(I209
I100
tp1841
S'TWI'
p1842
tp1843
a(g1
(g5
S'n>\xa1\xfaV?L@'
p1844
tp1845
Rp1846
(I50
I300
tp1847
S'AEL'
p1848
tp1849
a(g1
(g5
S'-\xe8Xi\x01CL@'
p1850
tp1851
Rp1852
(I34
I100
tp1853
S'BABY'
p1854
tp1855
a(g1
(g5
S'\xda\x13:\x97-DL@'
p1856
tp1857
Rp1858
(I2
I100
tp1859
S'BKMU'
p1860
tp1861
a(g1
(g5
S'\xa8\x029XfUL@'
p1862
tp1863
Rp1864
(I141
I100
tp1865
S'EVR'
p1866
tp1867
a(g1
(g5
S'\x84>\x97\xc29XL@'
p1868
tp1869
Rp1870
(I143
I100
tp1871
S'CVCO'
p1872
tp1873
a(g1
(g5
S'\x8f\x86\xdcO\x14ZL@'
p1874
tp1875
Rp1876
(I190
I100
tp1877
S'BANC'
p1878
tp1879
a(g1
(g5
S'%\xfd\xe0\x13hZL@'
p1880
tp1881
Rp1882
(I34
I300
tp1883
S'LDR'
p1884
tp1885
a(g1
(g5
S'd\xf3\xfc\xa7\x0e^L@'
p1886
tp1887
Rp1888
(I95
I100
tp1889
S'RUTH'
p1890
tp1891
a(g1
(g5
S'\x87P\xe5cA^L@'
p1892
tp1893
Rp1894
(I18
I300
tp1895
S'SPXC'
p1896
tp1897
a(g1
(g5
S'l2+\x0bBoL@'
p1898
tp1899
Rp1900
(I165
I100
tp1901
S'CCOI'
p1902
tp1903
a(g1
(g5
S'\xfc1\x14\x02\xf0xL@'
p1904
tp1905
Rp1906
(I157
I100
tp1907
S'FF'
p1908
tp1909
a(g1
(g5
S'\xb1\xe2\x1f\xd6\x00\x83L@'
p1910
tp1911
Rp1912
(I245
I300
tp1913
S'IART'
p1914
tp1915
a(g1
(g5
S'oV\xf6]\x98\x83L@'
p1916
tp1917
Rp1918
(I41
I100
tp1919
S'BOBE'
p1920
tp1921
a(g1
(g5
S'\xa3\xac\x9b\xb9\xb8\x89L@'
p1922
tp1923
Rp1924
(I293
I100
tp1925
S'GCO'
p1926
tp1927
a(g1
(g5
S'\xfe\x9e\xa3\x809\x92L@'
p1928
tp1929
Rp1930
(I21
I300
tp1931
S'LXP'
p1932
tp1933
a(g1
(g5
S'\x06\x82\n\x1c)\x93L@'
p1934
tp1935
Rp1936
(I408
I100
tp1937
S'PSB'
p1938
tp1939
a(g1
(g5
S"'z\xa9%\x1c\xa1L@"
p1940
tp1941
Rp1942
(I58
I100
tp1943
S'HZO'
p1944
tp1945
a(g1
(g5
S"\xa4'7\x10\x16\xaaL@"
p1946
tp1947
Rp1948
(I117
I100
tp1949
S'CNSL'
p1950
tp1951
a(g1
(g5
S'\xff\xc9\xdd\xd77\xb4L@'
p1952
tp1953
Rp1954
(I3
I100
tp1955
S'VECO'
p1956
tp1957
a(g1
(g5
S'l\xab\xf9K"\xbdL@'
p1958
tp1959
Rp1960
(I205
I100
tp1961
S'BJRI'
p1962
tp1963
a(g1
(g5
S'\xaf\xd2@\xf6\xae\xcaL@'
p1964
tp1965
Rp1966
(I257
I300
tp1967
S'MATW'
p1968
tp1969
a(g1
(g5
S"'H\xf2\xeb\x1b\xd1L@"
p1970
tp1971
Rp1972
(I483
I100
tp1973
S'CHCO'
p1974
tp1975
a(g1
(g5
S'\xf9P\x8e\x9fx\xd2L@'
p1976
tp1977
Rp1978
(I132
I100
tp1979
S'LHCG'
p1980
tp1981
a(g1
(g5
S'2\xfa\xab[\xae\xd5L@'
p1982
tp1983
Rp1984
(I7
I100
tp1985
S'SRDX'
p1986
tp1987
a(g1
(g5
S"\xbb\x00'&*\xefL@"
p1988
tp1989
Rp1990
(I154
I100
tp1991
S'RRGB'
p1992
tp1993
a(g1
(g5
S'\xec+`\x08&\xf8L@'
p1994
tp1995
Rp1996
(I59
I100
tp1997
S'STBA'
p1998
tp1999
a(g1
(g5
S'\xe2\xff\xd1:\xc8\nM@'
p2000
tp2001
Rp2002
(I44
I100
tp2003
S'SVU'
p2004
tp2005
a(g1
(g5
S'\x18\x84\xa5\xca\x0b\x11M@'
p2006
tp2007
Rp2008
(I162
I100
tp2009
S'ITG'
p2010
tp2011
a(g1
(g5
S'h\x17C\x16\xdb\x12M@'
p2012
tp2013
Rp2014
(I202
I500
tp2015
S'LFUS'
p2016
tp2017
a(g1
(g5
S'\xf8\xe92\x07\x02\x15M@'
p2018
tp2019
Rp2020
(I201
I100
tp2021
S'PFS'
p2022
tp2023
a(g1
(g5
S'\x17\x82\xac>\xf9)M@'
p2024
tp2025
Rp2026
(I37
I100
tp2027
S'BKS'
p2028
tp2029
a(g1
(g5
S'\x85\x7f#f\x02.M@'
p2030
tp2031
Rp2032
(I0
I500
tp2033
S'TRST'
p2034
tp2035
a(g1
(g5
S'\xdf\xc1\xe2\n-3M@'
p2036
tp2037
Rp2038
(I81
I100
tp2039
S'NCI'
p2040
tp2041
a(g1
(g5
S'6\x10\xf7\x9d\x835M@'
p2042
tp2043
Rp2044
(I21
I100
tp2045
S'AF'
p2046
tp2047
a(g1
(g5
S'T\xfagm_KM@'
p2048
tp2049
Rp2050
(I21
I100
tp2051
S'NR'
p2052
tp2053
a(g1
(g5
S'\xf5\x88\xb6\xbf\x1cmM@'
p2054
tp2055
Rp2056
(I115
I100
tp2057
S'ADTN'
p2058
tp2059
a(g1
(g5
S'~\xb1a\xc0\xd2|M@'
p2060
tp2061
Rp2062
(I293
I100
tp2063
S'MOV'
p2064
tp2065
a(g1
(g5
S'\x1a\x8b\xa8\xc8F\x86M@'
p2066
tp2067
Rp2068
(I216
I300
tp2069
S'CSGS'
p2070
tp2071
a(g1
(g5
S'\x0ep\xf4\xd7^\x88M@'
p2072
tp2073
Rp2074
(I84
I100
tp2075
S'PRGS'
p2076
tp2077
a(g1
(g5
S'\xa8B1`\x99\x91M@'
p2078
tp2079
Rp2080
(I294
I100
tp2081
S'LION'
p2082
tp2083
a(g1
(g5
S'aicl`\xd0M@'
p2084
tp2085
Rp2086
(I20
I300
tp2087
S'DEL'
p2088
tp2089
a(g1
(g5
S'\xd3\xc5\xaf\xabm\xd1M@'
p2090
tp2091
Rp2092
(I68
I100
tp2093
S'MANT'
p2094
tp2095
a(g1
(g5
S'\x82\x8d9\xf8\xb5\xd8M@'
p2096
tp2097
Rp2098
(I5
I100
tp2099
S'TIVO'
p2100
tp2101
a(g1
(g5
S'V\x1cM\xa3\xc7\xe0M@'
p2102
tp2103
Rp2104
(I166
I100
tp2105
S'CATO'
p2106
tp2107
a(g1
(g5
S'\xce\xde,\xf5E\xe8M@'
p2108
tp2109
Rp2110
(I168
I100
tp2111
S'NP'
p2112
tp2113
a(g1
(g5
S'`\x84\xfbw\xb7\xe9M@'
p2114
tp2115
Rp2116
(I0
I100
tp2117
S'KRG'
p2118
tp2119
a(g1
(g5
S'\xfeK\xddy\xb3\x0bN@'
p2120
tp2121
Rp2122
(I14
I100
tp2123
S'CPSI'
p2124
tp2125
a(g1
(g5
S'\x12\xd6\xb7\x05\x00+N@'
p2126
tp2127
Rp2128
(I186
I100
tp2129
S'MSTR'
p2130
tp2131
a(g1
(g5
S'_5,w\xae7N@'
p2132
tp2133
Rp2134
(I151
I100
tp2135
S'MINI'
p2136
tp2137
a(g1
(g5
S'p\xfd\xf8\xd3\xba\\N@'
p2138
tp2139
Rp2140
(I40
I100
tp2141
S'BEL'
p2142
tp2143
a(g1
(g5
S'\xe8\xe8\x1e\xc7NaN@'
p2144
tp2145
Rp2146
(I226
I100
tp2147
S'KFY'
p2148
tp2149
a(g1
(g5
S'sO,\xa3dbN@'
p2150
tp2151
Rp2152
(I184
I100
tp2153
S'KND'
p2154
tp2155
a(g1
(g5
S'\xb64(\xa7\xe7eN@'
p2156
tp2157
Rp2158
(I90
I100
tp2159
S'KIRK'
p2160
tp2161
a(g1
(g5
S'u\xa6\xdb\xf3\xafjN@'
p2162
tp2163
Rp2164
(I73
I100
tp2165
S'DIN'
p2166
tp2167
a(g1
(g5
S'@\xf7\xd9\xd9\xc4~N@'
p2168
tp2169
Rp2170
(I348
I100
tp2171
S'ELY'
p2172
tp2173
a(g1
(g5
S'*\xb0\r:\xdf\x85N@'
p2174
tp2175
Rp2176
(I71
I100
tp2177
S'EIG'
p2178
tp2179
a(g1
(g5
S'\xeb\x85\x14\x92\x14\x86N@'
p2180
tp2181
Rp2182
(I242
I300
tp2183
S'EE'
p2184
tp2185
a(g1
(g5
S'\xd6\xd66\xa4\xf7\x89N@'
p2186
tp2187
Rp2188
(I81
I100
tp2189
S'GTLS'
p2190
tp2191
a(g1
(g5
S'a\x18\x82\xf7\xd5\xc2N@'
p2192
tp2193
Rp2194
(I150
I100
tp2195
S'SENEA'
p2196
tp2197
a(g1
(g5
S'O}E\x84\xde\xcaN@'
p2198
tp2199
Rp2200
(I36
I100
tp2201
S'RT'
p2202
tp2203
a(g1
(g5
S'\x95\xbd\xef\x11{\xcbN@'
p2204
tp2205
Rp2206
(I307
I100
tp2207
S'WTFC'
p2208
tp2209
a(g1
(g5
S'\x0c\xd2\xd1JQ\xd1N@'
p2210
tp2211
Rp2212
(I49
I300
tp2213
S'BANR'
p2214
tp2215
a(g1
(g5
S',\xbeD\xc3Q\xd9N@'
p2216
tp2217
Rp2218
(I8
I100
tp2219
S'HAFC'
p2220
tp2221
a(g1
(g5
S'G\xc84\x1f\xe1\xe9N@'
p2222
tp2223
Rp2224
(I10
I100
tp2225
S'AXL'
p2226
tp2227
a(g1
(g5
S'Z\x81\xd72\xf7\xf1N@'
p2228
tp2229
Rp2230
(I50
I300
tp2231
S'EXLS'
p2232
tp2233
a(g1
(g5
S'N\x0f\x87\xbe\xcc\xf5N@'
p2234
tp2235
Rp2236
(I100
I100
tp2237
S'PES'
p2238
tp2239
a(g1
(g5
S'v\\\x04X\xe6\x11O@'
p2240
tp2241
Rp2242
(I66
I100
tp2243
S'LMNX'
p2244
tp2245
a(g1
(g5
S'\x13\xc2e\xabF\x1cO@'
p2246
tp2247
Rp2248
(I49
I100
tp2249
S'CROX'
p2250
tp2251
a(g1
(g5
S'\xba\xf8\x152\x97/O@'
p2252
tp2253
Rp2254
(I85
I100
tp2255
S'NTGR'
p2256
tp2257
a(g1
(g5
S'\xcc\x04\x02\xc4~DO@'
p2258
tp2259
Rp2260
(I31
I100
tp2261
S'SCVL'
p2262
tp2263
a(g1
(g5
S'm\xea&\xf3\xc0KO@'
p2264
tp2265
Rp2266
(I126
I100
tp2267
S'FTK'
p2268
tp2269
a(g1
(g5
S'|S\xe2\xe1QqO@'
p2270
tp2271
Rp2272
(I115
I300
tp2273
S'CACI'
p2274
tp2275
a(g1
(g5
S'3\x9e\x82\xe2v\x81O@'
p2276
tp2277
Rp2278
(I71
I100
tp2279
S'FWRD'
p2280
tp2281
a(g1
(g5
S'f\x90Y\xe9\x89\x96O@'
p2282
tp2283
Rp2284
(I22
I100
tp2285
S'NSIT'
p2286
tp2287
a(g1
(g5
S'}lYw\x05\xcfO@'
p2288
tp2289
Rp2290
(I31
I100
tp2291
S'SAH'
p2292
tp2293
a(g1
(g5
S'\x0b\xc5h\x86<\x02P@'
p2294
tp2295
Rp2296
(I271
I300
tp2297
S'SMRT'
p2298
tp2299
a(g1
(g5
S'\xcc\xf8@8]\x03P@'
p2300
tp2301
Rp2302
(I15
I300
tp2303
S'RCII'
p2304
tp2305
a(g1
(g5
S'\xf1\xb4w\r\xcc\x1aP@'
p2306
tp2307
Rp2308
(I110
I100
tp2309
S'ORIT'
p2310
tp2311
a(g1
(g5
S'\xd9\x05$T8\x1cP@'
p2312
tp2313
Rp2314
(I228
I100
tp2315
S'WNC'
p2316
tp2317
a(g1
(g5
S'\x05RR\xc83\x1dP@'
p2318
tp2319
Rp2320
(I216
I300
tp2321
S'WTS'
p2322
tp2323
a(g1
(g5
S'\x96)"FE\x1fP@'
p2324
tp2325
Rp2326
(I134
I100
tp2327
S'PRSC'
p2328
tp2329
a(g1
(g5
S'e\xf3\xe8vx1P@'
p2330
tp2331
Rp2332
(I39
I300
tp2333
S'ARCB'
p2334
tp2335
a(g1
(g5
S'r\x8eC\xa5\xab=P@'
p2336
tp2337
Rp2338
(I45
I100
tp2339
S'FINL'
p2340
tp2341
a(g1
(g5
S'!\x02l\xcd?QP@'
p2342
tp2343
Rp2344
(I68
I100
tp2345
S'EPAY'
p2346
tp2347
a(g1
(g5
S'\xbe}\r(\xbaUP@'
p2348
tp2349
Rp2350
(I215
I100
tp2351
S'AMRI'
p2352
tp2353
a(g1
(g5
S'\xa3E~A?VP@'
p2354
tp2355
Rp2356
(I113
I100
tp2357
S'IPXL'
p2358
tp2359
a(g1
(g5
S'\x05+\xe4%\xeaVP@'
p2360
tp2361
Rp2362
(I310
I100
tp2363
S'CDR'
p2364
tp2365
a(g1
(g5
S'\xbc\xf04\x18\\[P@'
p2366
tp2367
Rp2368
(I180
I100
tp2369
S'MDCO'
p2370
tp2371
a(g1
(g5
S'\xf6\x9a\xac\x81HfP@'
p2372
tp2373
Rp2374
(I20
I500
tp2375
S'SAFT'
p2376
tp2377
a(g1
(g5
S'j"*\xde}iP@'
p2378
tp2379
Rp2380
(I99
I100
tp2381
S'HSII'
p2382
tp2383
a(g1
(g5
S'\xf4%\x1d\xe6\x92mP@'
p2384
tp2385
Rp2386
(I170
I100
tp2387
S'OMCL'
p2388
tp2389
a(g1
(g5
S"';\x1f\xd9\x1crP@"
p2390
tp2391
Rp2392
(I117
I100
tp2393
S'TBI'
p2394
tp2395
a(g1
(g5
S'\xd3\x9c\x9cl\xd8vP@'
p2396
tp2397
Rp2398
(I253
I100
tp2399
S'TTMI'
p2400
tp2401
a(g1
(g5
S'\x8a;\xc3\xd3\x90\x82P@'
p2402
tp2403
Rp2404
(I130
I100
tp2405
S'SYKE'
p2406
tp2407
a(g1
(g5
S'9S\xc2\xfa\x19\x88P@'
p2408
tp2409
Rp2410
(I35
I100
tp2411
S'SNCR'
p2412
tp2413
a(g1
(g5
S'-\xdd\x8cvg\x90P@'
p2414
tp2415
Rp2416
(I148
I100
tp2417
S'SSI'
p2418
tp2419
a(g1
(g5
S'\xfe\xba\xff\xdd\x80\x91P@'
p2420
tp2421
Rp2422
(I52
I300
tp2423
S'GIFI'
p2424
tp2425
a(g1
(g5
S'\x9d{{kQ\xa1P@'
p2426
tp2427
Rp2428
(I38
I300
tp2429
S'LTXB'
p2430
tp2431
a(g1
(g5
S'\xcf$\x02\x87u\xa5P@'
p2432
tp2433
Rp2434
(I491
I100
tp2435
S'AIN'
p2436
tp2437
a(g1
(g5
S'W\xdf\xa4z\xa9\xaeP@'
p2438
tp2439
Rp2440
(I149
I100
tp2441
S'BCOR'
p2442
tp2443
a(g1
(g5
S'P\xe4\xb6\x8a?\xafP@'
p2444
tp2445
Rp2446
(I14
I100
tp2447
S'RECN'
p2448
tp2449
a(g1
(g5
S'\x86]\xca\xaa\xd4\xbdP@'
p2450
tp2451
Rp2452
(I223
I100
tp2453
S'DGII'
p2454
tp2455
a(g1
(g5
S'\xa6\xca\x97\x04\xd8\xcfP@'
p2456
tp2457
Rp2458
(I147
I100
tp2459
S'IPCC'
p2460
tp2461
a(g1
(g5
S'5\x80\xe1\x8e]\xd1P@'
p2462
tp2463
Rp2464
(I141
I100
tp2465
S'HAE'
p2466
tp2467
a(g1
(g5
S' %\x9cUK\xfbP@'
p2468
tp2469
Rp2470
(I46
I100
tp2471
S'PDCE'
p2472
tp2473
a(g1
(g5
S'\xd3{\xbc\x17w\x10Q@'
p2474
tp2475
Rp2476
(I114
I100
tp2477
S'SCHL'
p2478
tp2479
a(g1
(g5
S' \xc1\x0c-E\x19Q@'
p2480
tp2481
Rp2482
(I155
I100
tp2483
S'KALU'
p2484
tp2485
a(g1
(g5
S'\xd9\xb9|Y\x98*Q@'
p2486
tp2487
Rp2488
(I289
I300
tp2489
S'SCLN'
p2490
tp2491
a(g1
(g5
S'\x12K\x00\xfa\xfakQ@'
p2492
tp2493
Rp2494
(I244
I100
tp2495
S'POWI'
p2496
tp2497
a(g1
(g5
S'\xef\xde\xd7\x9a\x9bnQ@'
p2498
tp2499
Rp2500
(I240
I100
tp2501
S'VICR'
p2502
tp2503
a(g1
(g5
S'\x15xg\xe8\x00~Q@'
p2504
tp2505
Rp2506
(I27
I100
tp2507
S'NOG'
p2508
tp2509
a(g1
(g5
S'N.\xdf\xd1\x83\xa0Q@'
p2510
tp2511
Rp2512
(I29
I100
tp2513
S'HOS'
p2514
tp2515
a(g1
(g5
S'\xd5\xc3\xecIj\xaaQ@'
p2516
tp2517
Rp2518
(I143
I100
tp2519
S'PJC'
p2520
tp2521
a(g1
(g5
S'\xbcr\xf4\x89\xe1\xcfQ@'
p2522
tp2523
Rp2524
(I236
I100
tp2525
S'GPI'
p2526
tp2527
a(g1
(g5
S'E\x1aQ\x15\xd7\x02R@'
p2528
tp2529
Rp2530
(I35
I100
tp2531
S'IPHS'
p2532
tp2533
a(g1
(g5
S'\xf4I\xdc\xcdm\nR@'
p2534
tp2535
Rp2536
(I165
I100
tp2537
S'NPO'
p2538
tp2539
a(g1
(g5
S'r/\xa6\xe5F\x1aR@'
p2540
tp2541
Rp2542
(I23
I300
tp2543
S'EBS'
p2544
tp2545
a(g1
(g5
S"\x93'|\xd5\xef7R@"
p2546
tp2547
Rp2548
(I15
I100
tp2549
S'BBG'
p2550
tp2551
a(g1
(g5
S'\x1c\xe7\xc5\x98MWR@'
p2552
tp2553
Rp2554
(I115
I100
tp2555
S'DRH'
p2556
tp2557
a(g1
(g5
S"\x06\xda'APnR@"
p2558
tp2559
Rp2560
(I190
I100
tp2561
S'CCRN'
p2562
tp2563
a(g1
(g5
S'\x9be\x89t\x13yR@'
p2564
tp2565
Rp2566
(I83
I100
tp2567
S'CPLA'
p2568
tp2569
a(g1
(g5
S'\xd6\xdb%\xbfA\x86R@'
p2570
tp2571
Rp2572
(I161
I100
tp2573
S'KOP'
p2574
tp2575
a(g1
(g5
S'/\xba)#\xbe\x8aR@'
p2576
tp2577
Rp2578
(I51
I100
tp2579
S'CYH'
p2580
tp2581
a(g1
(g5
S'4\xbcG\xcf5ES@'
p2582
tp2583
Rp2584
(I60
I100
tp2585
S'BELFB'
p2586
tp2587
a(g1
(g5
S'l^\xe0Q:ZS@'
p2588
tp2589
Rp2590
(I58
I300
tp2591
S'MGLN'
p2592
tp2593
a(g1
(g5
S'@D\x94\xb1e_S@'
p2594
tp2595
Rp2596
(I81
I100
tp2597
S'AEGN'
p2598
tp2599
a(g1
(g5
S'\xb4\xcd\xb8\x90)\xf0S@'
p2600
tp2601
Rp2602
(I0
I100
tp2603
S'GHL'
p2604
tp2605
a(g1
(g5
S'@\xc1\x02\xd9\xc4`T@'
p2606
tp2607
Rp2608
(I213
I100
tp2609
S'BGFV'
p2610
tp2611
a(g1
(g5
S'\x05\xf2\xa5\xf7\xcamT@'
p2612
tp2613
Rp2614
(I55
I100
tp2615
S'ZUMZ'
p2616
tp2617
a(g1
(g5
S'\xf6c\xe1\xca0jU@'
p2618
tp2619
Rp2620
(I96
I100
tp2621
S'ACOR'
p2622
tp2623
a(g1
(g5
S'\x9b$\x02\xa4\xea,V@'
p2624
tp2625
Rp2626
(I141
I100
tp2627
S'ANGO'
p2628
tp2629
a(g1
(g5
S'^\xf6o\xcd\xd1FV@'
p2630
tp2631
Rp2632
(I149
I100
tp2633
S'MNTA'
p2634
tp2635
a(g1
(g5
S'\xb5z\xa6\xf9\xf97W@'
p2636
tp2637
Rp2638
(I68
I100
tp2639
S'AAWW'
p2640
tp2641
a.